
objs/tests/0-no-ack-check.elf:     file format elf32-littlearm


Disassembly of section .text:

00008000 <__code_start__>:
    8000:	e3a00013 	mov	r0, #19, 0
    8004:	e3800080 	orr	r0, r0, #128, 0	; 0x80
    8008:	e129f000 	msr	CPSR_fc, r0
    800c:	e3a01000 	mov	r1, #0, 0
    8010:	ee071f95 	mcr	15, 0, r1, cr7, cr5, {4}
    8014:	e3a0d302 	mov	sp, #134217728	; 0x8000000
    8018:	e3a0b000 	mov	fp, #0, 0
    801c:	eb0014ce 	bl	d35c <_cstart>
    8020:	eb001510 	bl	d468 <rpi_reboot>

00008024 <PUT32>:
    8024:	e5801000 	str	r1, [r0]
    8028:	e12fff1e 	bx	lr

0000802c <GET32>:
    802c:	e5900000 	ldr	r0, [r0]
    8030:	e12fff1e 	bx	lr

00008034 <BRANCHTO>:
    8034:	e12fff10 	bx	r0

00008038 <notmain>:
    8038:	e92d47f0 	push	{r4, r5, r6, r7, r8, r9, sl, lr}
    803c:	e24dd018 	sub	sp, sp, #24, 0
    8040:	e59f90e8 	ldr	r9, [pc, #232]	; 8130 <notmain+0xf8>
    8044:	e59f70e8 	ldr	r7, [pc, #232]	; 8134 <notmain+0xfc>
    8048:	e1a01009 	mov	r1, r9
    804c:	e1a00007 	mov	r0, r7
    8050:	eb0013b0 	bl	cf18 <printk>
    8054:	e59fa0dc 	ldr	sl, [pc, #220]	; 8138 <notmain+0x100>
    8058:	e3a02020 	mov	r2, #32, 0
    805c:	e1a0100a 	mov	r1, sl
    8060:	e59f00d4 	ldr	r0, [pc, #212]	; 813c <notmain+0x104>
    8064:	eb0013ab 	bl	cf18 <printk>
    8068:	e1a0400d 	mov	r4, sp
    806c:	e3a05000 	mov	r5, #0, 0
    8070:	e3a06020 	mov	r6, #32, 0
    8074:	e5cd6003 	strb	r6, [sp, #3]
    8078:	e3a08071 	mov	r8, #113, 0	; 0x71
    807c:	e5cd8004 	strb	r8, [sp, #4]
    8080:	e5cd5000 	strb	r5, [sp]
    8084:	e3a03006 	mov	r3, #6, 0
    8088:	e5cd3001 	strb	r3, [sp, #1]
    808c:	e3a03016 	mov	r3, #22, 0
    8090:	e5cd3002 	strb	r3, [sp, #2]
    8094:	e8940003 	ldm	r4, {r0, r1}
    8098:	e58d0010 	str	r0, [sp, #16]
    809c:	e5cd1014 	strb	r1, [sp, #20]
    80a0:	e1a03005 	mov	r3, r5
    80a4:	e1a0200a 	mov	r2, sl
    80a8:	e28d1018 	add	r1, sp, #24, 0
    80ac:	e9110003 	ldmdb	r1, {r0, r1}
    80b0:	eb0005a9 	bl	975c <nrf_init>
    80b4:	e1a01000 	mov	r1, r0
    80b8:	e59f0080 	ldr	r0, [pc, #128]	; 8140 <notmain+0x108>
    80bc:	eb000200 	bl	88c4 <nrf_dump>
    80c0:	e1a01009 	mov	r1, r9
    80c4:	e1a00007 	mov	r0, r7
    80c8:	eb001392 	bl	cf18 <printk>
    80cc:	e59f7070 	ldr	r7, [pc, #112]	; 8144 <notmain+0x10c>
    80d0:	e1a02006 	mov	r2, r6
    80d4:	e1a01007 	mov	r1, r7
    80d8:	e59f0068 	ldr	r0, [pc, #104]	; 8148 <notmain+0x110>
    80dc:	eb00138d 	bl	cf18 <printk>
    80e0:	e5cd6003 	strb	r6, [sp, #3]
    80e4:	e5cd8004 	strb	r8, [sp, #4]
    80e8:	e3a03001 	mov	r3, #1, 0
    80ec:	e5cd3000 	strb	r3, [sp]
    80f0:	e3a03005 	mov	r3, #5, 0
    80f4:	e5cd3001 	strb	r3, [sp, #1]
    80f8:	e3a03017 	mov	r3, #23, 0
    80fc:	e5cd3002 	strb	r3, [sp, #2]
    8100:	e8940003 	ldm	r4, {r0, r1}
    8104:	e58d0008 	str	r0, [sp, #8]
    8108:	e5cd100c 	strb	r1, [sp, #12]
    810c:	e1a03005 	mov	r3, r5
    8110:	e1a02007 	mov	r2, r7
    8114:	e59d100c 	ldr	r1, [sp, #12]
    8118:	eb00058f 	bl	975c <nrf_init>
    811c:	e1a01000 	mov	r1, r0
    8120:	e59f0024 	ldr	r0, [pc, #36]	; 814c <notmain+0x114>
    8124:	eb0001e6 	bl	88c4 <nrf_dump>
    8128:	e28dd018 	add	sp, sp, #24, 0
    812c:	e8bd87f0 	pop	{r4, r5, r6, r7, r8, r9, sl, pc}
    8130:	0000dbbc 	.word	0x0000dbbc
    8134:	0000db10 	.word	0x0000db10
    8138:	00d5d5d5 	.word	0x00d5d5d5
    813c:	0000db1c 	.word	0x0000db1c
    8140:	0000db50 	.word	0x0000db50
    8144:	00e5e5e5 	.word	0x00e5e5e5
    8148:	0000db6c 	.word	0x0000db6c
    814c:	0000dba0 	.word	0x0000dba0

00008150 <nrf_set_verbose>:
    8150:	e59f3004 	ldr	r3, [pc, #4]	; 815c <nrf_set_verbose+0xc>
    8154:	e5830000 	str	r0, [r3]
    8158:	e12fff1e 	bx	lr
    815c:	0000f0fc 	.word	0x0000f0fc

00008160 <nrf_spi_init>:
    8160:	e92d4070 	push	{r4, r5, r6, lr}
    8164:	e24dd008 	sub	sp, sp, #8, 0
    8168:	e1a05000 	mov	r5, r0
    816c:	e1a06001 	mov	r6, r1
    8170:	e1a04002 	mov	r4, r2
    8174:	e3a00064 	mov	r0, #100, 0	; 0x64
    8178:	eb0014e5 	bl	d514 <delay_ms>
    817c:	e3540001 	cmp	r4, #1, 0
    8180:	8a000013 	bhi	81d4 <nrf_spi_init+0x74>
    8184:	e3a02014 	mov	r2, #20, 0
    8188:	e1a01004 	mov	r1, r4
    818c:	e1a00005 	mov	r0, r5
    8190:	eb000b53 	bl	aee4 <spi_n_init>
    8194:	e5953000 	ldr	r3, [r5]
    8198:	e1530004 	cmp	r3, r4
    819c:	1a000014 	bne	81f4 <nrf_spi_init+0x94>
    81a0:	e3a00064 	mov	r0, #100, 0	; 0x64
    81a4:	eb0014da 	bl	d514 <delay_ms>
    81a8:	eb00149d 	bl	d424 <dev_barrier>
    81ac:	e1a00006 	mov	r0, r6
    81b0:	eb0012b5 	bl	cc8c <gpio_set_output>
    81b4:	e1a00006 	mov	r0, r6
    81b8:	eb0012d3 	bl	cd0c <gpio_set_pulldown>
    81bc:	e1a00006 	mov	r0, r6
    81c0:	eb00126f 	bl	cb84 <gpio_set_off>
    81c4:	eb001496 	bl	d424 <dev_barrier>
    81c8:	e1a00005 	mov	r0, r5
    81cc:	e28dd008 	add	sp, sp, #8, 0
    81d0:	e8bd8070 	pop	{r4, r5, r6, pc}
    81d4:	e59f3038 	ldr	r3, [pc, #56]	; 8214 <nrf_spi_init+0xb4>
    81d8:	e58d3000 	str	r3, [sp]
    81dc:	e3a03018 	mov	r3, #24, 0
    81e0:	e59f2030 	ldr	r2, [pc, #48]	; 8218 <nrf_spi_init+0xb8>
    81e4:	e59f1030 	ldr	r1, [pc, #48]	; 821c <nrf_spi_init+0xbc>
    81e8:	e59f0030 	ldr	r0, [pc, #48]	; 8220 <nrf_spi_init+0xc0>
    81ec:	eb001349 	bl	cf18 <printk>
    81f0:	eb001451 	bl	d33c <clean_reboot>
    81f4:	e59f3028 	ldr	r3, [pc, #40]	; 8224 <nrf_spi_init+0xc4>
    81f8:	e58d3000 	str	r3, [sp]
    81fc:	e3a0301f 	mov	r3, #31, 0
    8200:	e59f2010 	ldr	r2, [pc, #16]	; 8218 <nrf_spi_init+0xb8>
    8204:	e59f1010 	ldr	r1, [pc, #16]	; 821c <nrf_spi_init+0xbc>
    8208:	e59f0010 	ldr	r0, [pc, #16]	; 8220 <nrf_spi_init+0xc0>
    820c:	eb001341 	bl	cf18 <printk>
    8210:	eb001449 	bl	d33c <clean_reboot>
    8214:	0000dc08 	.word	0x0000dc08
    8218:	0000e22c 	.word	0x0000e22c
    821c:	0000dbc4 	.word	0x0000dbc4
    8220:	0000dbd8 	.word	0x0000dbd8
    8224:	0000dc28 	.word	0x0000dc28

00008228 <nrf_get8>:
    8228:	e52de004 	push	{lr}		; (str lr, [sp, #-4]!)
    822c:	e24dd024 	sub	sp, sp, #36, 0	; 0x24
    8230:	e1a03000 	mov	r3, r0
    8234:	e5cd1018 	strb	r1, [sp, #24]
    8238:	e3e02000 	mvn	r2, #0, 0
    823c:	e5cd2019 	strb	r2, [sp, #25]
    8240:	e3a02002 	mov	r2, #2, 0
    8244:	e58d2010 	str	r2, [sp, #16]
    8248:	e28d2018 	add	r2, sp, #24, 0
    824c:	e58d200c 	str	r2, [sp, #12]
    8250:	e28d201c 	add	r2, sp, #28, 0
    8254:	e58d2008 	str	r2, [sp, #8]
    8258:	e590101c 	ldr	r1, [r0, #28]
    825c:	e5900018 	ldr	r0, [r0, #24]
    8260:	e88d0003 	stm	sp, {r0, r1}
    8264:	e2830008 	add	r0, r3, #8, 0
    8268:	e890000f 	ldm	r0, {r0, r1, r2, r3}
    826c:	eb000af3 	bl	ae40 <spi_n_transfer>
    8270:	e5dd001d 	ldrb	r0, [sp, #29]
    8274:	e28dd024 	add	sp, sp, #36, 0	; 0x24
    8278:	e49df004 	pop	{pc}		; (ldr pc, [sp], #4)

0000827c <nrf_put8>:
    827c:	e52de004 	push	{lr}		; (str lr, [sp, #-4]!)
    8280:	e24dd024 	sub	sp, sp, #36, 0	; 0x24
    8284:	e1a03000 	mov	r3, r0
    8288:	e3811020 	orr	r1, r1, #32, 0
    828c:	e5cd1018 	strb	r1, [sp, #24]
    8290:	e5cd2019 	strb	r2, [sp, #25]
    8294:	e3a02002 	mov	r2, #2, 0
    8298:	e58d2010 	str	r2, [sp, #16]
    829c:	e28d2018 	add	r2, sp, #24, 0
    82a0:	e58d200c 	str	r2, [sp, #12]
    82a4:	e28d201c 	add	r2, sp, #28, 0
    82a8:	e58d2008 	str	r2, [sp, #8]
    82ac:	e590101c 	ldr	r1, [r0, #28]
    82b0:	e5900018 	ldr	r0, [r0, #24]
    82b4:	e88d0003 	stm	sp, {r0, r1}
    82b8:	e2830008 	add	r0, r3, #8, 0
    82bc:	e890000f 	ldm	r0, {r0, r1, r2, r3}
    82c0:	eb000ade 	bl	ae40 <spi_n_transfer>
    82c4:	e5dd001c 	ldrb	r0, [sp, #28]
    82c8:	e28dd024 	add	sp, sp, #36, 0	; 0x24
    82cc:	e49df004 	pop	{pc}		; (ldr pc, [sp], #4)

000082d0 <nrf_put8_chk_helper>:
    82d0:	e92d40f0 	push	{r4, r5, r6, r7, lr}
    82d4:	e24dd014 	sub	sp, sp, #20, 0
    82d8:	e28dc010 	add	ip, sp, #16, 0
    82dc:	e90c0007 	stmdb	ip, {r0, r1, r2}
    82e0:	e1a04003 	mov	r4, r3
    82e4:	e5dd6028 	ldrb	r6, [sp, #40]	; 0x28
    82e8:	e5dd702c 	ldrb	r7, [sp, #44]	; 0x2c
    82ec:	e1a02007 	mov	r2, r7
    82f0:	e1a01006 	mov	r1, r6
    82f4:	e1a00003 	mov	r0, r3
    82f8:	ebffffdf 	bl	827c <nrf_put8>
    82fc:	e1a05000 	mov	r5, r0
    8300:	e1a01006 	mov	r1, r6
    8304:	e1a00004 	mov	r0, r4
    8308:	ebffffc6 	bl	8228 <nrf_get8>
    830c:	e1570000 	cmp	r7, r0
    8310:	1a000002 	bne	8320 <nrf_put8_chk_helper+0x50>
    8314:	e1a00005 	mov	r0, r5
    8318:	e28dd014 	add	sp, sp, #20, 0
    831c:	e8bd80f0 	pop	{r4, r5, r6, r7, pc}
    8320:	e1a04000 	mov	r4, r0
    8324:	e59d300c 	ldr	r3, [sp, #12]
    8328:	e59d2008 	ldr	r2, [sp, #8]
    832c:	e59d1004 	ldr	r1, [sp, #4]
    8330:	e59f0018 	ldr	r0, [pc, #24]	; 8350 <nrf_put8_chk_helper+0x80>
    8334:	eb0012f7 	bl	cf18 <printk>
    8338:	e1a03007 	mov	r3, r7
    833c:	e1a02004 	mov	r2, r4
    8340:	e1a01006 	mov	r1, r6
    8344:	e59f0008 	ldr	r0, [pc, #8]	; 8354 <nrf_put8_chk_helper+0x84>
    8348:	eb0012f2 	bl	cf18 <printk>
    834c:	eb0013fa 	bl	d33c <clean_reboot>
    8350:	0000dc3c 	.word	0x0000dc3c
    8354:	0000dc54 	.word	0x0000dc54

00008358 <nrf_getn>:
    8358:	e92d4070 	push	{r4, r5, r6, lr}
    835c:	e24dd098 	sub	sp, sp, #152, 0	; 0x98
    8360:	e3530040 	cmp	r3, #64, 0	; 0x40
    8364:	8a00001c 	bhi	83dc <nrf_getn+0x84>
    8368:	e1a04000 	mov	r4, r0
    836c:	e1a06002 	mov	r6, r2
    8370:	e1a05003 	mov	r5, r3
    8374:	e3530000 	cmp	r3, #0, 0
    8378:	0a00001f 	beq	83fc <nrf_getn+0xa4>
    837c:	e5cd1018 	strb	r1, [sp, #24]
    8380:	e1a02003 	mov	r2, r3
    8384:	e3a010ff 	mov	r1, #255, 0	; 0xff
    8388:	e28d0019 	add	r0, sp, #25, 0
    838c:	eb0012b9 	bl	ce78 <memset>
    8390:	e2853001 	add	r3, r5, #1, 0
    8394:	e58d3010 	str	r3, [sp, #16]
    8398:	e28d3018 	add	r3, sp, #24, 0
    839c:	e58d300c 	str	r3, [sp, #12]
    83a0:	e28d3058 	add	r3, sp, #88, 0	; 0x58
    83a4:	e58d3008 	str	r3, [sp, #8]
    83a8:	e594101c 	ldr	r1, [r4, #28]
    83ac:	e5940018 	ldr	r0, [r4, #24]
    83b0:	e88d0003 	stm	sp, {r0, r1}
    83b4:	e2840008 	add	r0, r4, #8, 0
    83b8:	e890000f 	ldm	r0, {r0, r1, r2, r3}
    83bc:	eb000a9f 	bl	ae40 <spi_n_transfer>
    83c0:	e1a02005 	mov	r2, r5
    83c4:	e28d1059 	add	r1, sp, #89, 0	; 0x59
    83c8:	e1a00006 	mov	r0, r6
    83cc:	eb00127e 	bl	cdcc <memcpy>
    83d0:	e5dd0058 	ldrb	r0, [sp, #88]	; 0x58
    83d4:	e28dd098 	add	sp, sp, #152, 0	; 0x98
    83d8:	e8bd8070 	pop	{r4, r5, r6, pc}
    83dc:	e59f3038 	ldr	r3, [pc, #56]	; 841c <nrf_getn+0xc4>
    83e0:	e58d3000 	str	r3, [sp]
    83e4:	e3a0306b 	mov	r3, #107, 0	; 0x6b
    83e8:	e59f2030 	ldr	r2, [pc, #48]	; 8420 <nrf_getn+0xc8>
    83ec:	e59f1030 	ldr	r1, [pc, #48]	; 8424 <nrf_getn+0xcc>
    83f0:	e59f0030 	ldr	r0, [pc, #48]	; 8428 <nrf_getn+0xd0>
    83f4:	eb0012c7 	bl	cf18 <printk>
    83f8:	eb0013cf 	bl	d33c <clean_reboot>
    83fc:	e59f3028 	ldr	r3, [pc, #40]	; 842c <nrf_getn+0xd4>
    8400:	e58d3000 	str	r3, [sp]
    8404:	e3a0306c 	mov	r3, #108, 0	; 0x6c
    8408:	e59f2010 	ldr	r2, [pc, #16]	; 8420 <nrf_getn+0xc8>
    840c:	e59f1010 	ldr	r1, [pc, #16]	; 8424 <nrf_getn+0xcc>
    8410:	e59f0010 	ldr	r0, [pc, #16]	; 8428 <nrf_getn+0xd0>
    8414:	eb0012bf 	bl	cf18 <printk>
    8418:	eb0013c7 	bl	d33c <clean_reboot>
    841c:	0000dc78 	.word	0x0000dc78
    8420:	0000e23c 	.word	0x0000e23c
    8424:	0000dbc4 	.word	0x0000dbc4
    8428:	0000dbd8 	.word	0x0000dbd8
    842c:	0000dc94 	.word	0x0000dc94

00008430 <nrf_putn>:
    8430:	e92d4030 	push	{r4, r5, lr}
    8434:	e24dd09c 	sub	sp, sp, #156, 0	; 0x9c
    8438:	e3530040 	cmp	r3, #64, 0	; 0x40
    843c:	8a000018 	bhi	84a4 <nrf_putn+0x74>
    8440:	e1a05000 	mov	r5, r0
    8444:	e1a00001 	mov	r0, r1
    8448:	e1a01002 	mov	r1, r2
    844c:	e1a04003 	mov	r4, r3
    8450:	e3530000 	cmp	r3, #0, 0
    8454:	0a00001a 	beq	84c4 <nrf_putn+0x94>
    8458:	e5cd0018 	strb	r0, [sp, #24]
    845c:	e1a02003 	mov	r2, r3
    8460:	e28d0019 	add	r0, sp, #25, 0
    8464:	eb001258 	bl	cdcc <memcpy>
    8468:	e2844001 	add	r4, r4, #1, 0
    846c:	e58d4010 	str	r4, [sp, #16]
    8470:	e28d3018 	add	r3, sp, #24, 0
    8474:	e58d300c 	str	r3, [sp, #12]
    8478:	e28d3058 	add	r3, sp, #88, 0	; 0x58
    847c:	e58d3008 	str	r3, [sp, #8]
    8480:	e595101c 	ldr	r1, [r5, #28]
    8484:	e5950018 	ldr	r0, [r5, #24]
    8488:	e88d0003 	stm	sp, {r0, r1}
    848c:	e2850008 	add	r0, r5, #8, 0
    8490:	e890000f 	ldm	r0, {r0, r1, r2, r3}
    8494:	eb000a69 	bl	ae40 <spi_n_transfer>
    8498:	e5dd0058 	ldrb	r0, [sp, #88]	; 0x58
    849c:	e28dd09c 	add	sp, sp, #156, 0	; 0x9c
    84a0:	e8bd8030 	pop	{r4, r5, pc}
    84a4:	e59f3038 	ldr	r3, [pc, #56]	; 84e4 <nrf_putn+0xb4>
    84a8:	e58d3000 	str	r3, [sp]
    84ac:	e3a0307b 	mov	r3, #123, 0	; 0x7b
    84b0:	e59f2030 	ldr	r2, [pc, #48]	; 84e8 <nrf_putn+0xb8>
    84b4:	e59f1030 	ldr	r1, [pc, #48]	; 84ec <nrf_putn+0xbc>
    84b8:	e59f0030 	ldr	r0, [pc, #48]	; 84f0 <nrf_putn+0xc0>
    84bc:	eb001295 	bl	cf18 <printk>
    84c0:	eb00139d 	bl	d33c <clean_reboot>
    84c4:	e59f3028 	ldr	r3, [pc, #40]	; 84f4 <nrf_putn+0xc4>
    84c8:	e58d3000 	str	r3, [sp]
    84cc:	e3a0307c 	mov	r3, #124, 0	; 0x7c
    84d0:	e59f2010 	ldr	r2, [pc, #16]	; 84e8 <nrf_putn+0xb8>
    84d4:	e59f1010 	ldr	r1, [pc, #16]	; 84ec <nrf_putn+0xbc>
    84d8:	e59f0010 	ldr	r0, [pc, #16]	; 84f0 <nrf_putn+0xc0>
    84dc:	eb00128d 	bl	cf18 <printk>
    84e0:	eb001395 	bl	d33c <clean_reboot>
    84e4:	0000dc78 	.word	0x0000dc78
    84e8:	0000e248 	.word	0x0000e248
    84ec:	0000dbc4 	.word	0x0000dbc4
    84f0:	0000dbd8 	.word	0x0000dbd8
    84f4:	0000dc94 	.word	0x0000dc94

000084f8 <nrf_or8>:
    84f8:	e92d4070 	push	{r4, r5, r6, lr}
    84fc:	e1a04000 	mov	r4, r0
    8500:	e1a05001 	mov	r5, r1
    8504:	e1a06002 	mov	r6, r2
    8508:	ebffff46 	bl	8228 <nrf_get8>
    850c:	e1802006 	orr	r2, r0, r6
    8510:	e6ef2072 	uxtb	r2, r2
    8514:	e1a01005 	mov	r1, r5
    8518:	e1a00004 	mov	r0, r4
    851c:	ebffff56 	bl	827c <nrf_put8>
    8520:	e8bd8070 	pop	{r4, r5, r6, pc}

00008524 <nrf_bit_clr>:
    8524:	e92d4070 	push	{r4, r5, r6, lr}
    8528:	e24dd018 	sub	sp, sp, #24, 0
    852c:	e3520007 	cmp	r2, #7, 0
    8530:	8a000016 	bhi	8590 <nrf_bit_clr+0x6c>
    8534:	e1a05000 	mov	r5, r0
    8538:	e1a06001 	mov	r6, r1
    853c:	e1a04002 	mov	r4, r2
    8540:	e59f3088 	ldr	r3, [pc, #136]	; 85d0 <nrf_bit_clr+0xac>
    8544:	e58d300c 	str	r3, [sp, #12]
    8548:	e59f3084 	ldr	r3, [pc, #132]	; 85d4 <nrf_bit_clr+0xb0>
    854c:	e58d3010 	str	r3, [sp, #16]
    8550:	e3a0308e 	mov	r3, #142, 0	; 0x8e
    8554:	e58d3014 	str	r3, [sp, #20]
    8558:	ebffff32 	bl	8228 <nrf_get8>
    855c:	e354001f 	cmp	r4, #31, 0
    8560:	8a000012 	bhi	85b0 <nrf_bit_clr+0x8c>
    8564:	e3a02001 	mov	r2, #1, 0
    8568:	e1c02412 	bic	r2, r0, r2, lsl r4
    856c:	e6ef2072 	uxtb	r2, r2
    8570:	e58d2004 	str	r2, [sp, #4]
    8574:	e58d6000 	str	r6, [sp]
    8578:	e1a03005 	mov	r3, r5
    857c:	e28d2018 	add	r2, sp, #24, 0
    8580:	e9120007 	ldmdb	r2, {r0, r1, r2}
    8584:	ebffff51 	bl	82d0 <nrf_put8_chk_helper>
    8588:	e28dd018 	add	sp, sp, #24, 0
    858c:	e8bd8070 	pop	{r4, r5, r6, pc}
    8590:	e59f3040 	ldr	r3, [pc, #64]	; 85d8 <nrf_bit_clr+0xb4>
    8594:	e58d3000 	str	r3, [sp]
    8598:	e3a0308d 	mov	r3, #141, 0	; 0x8d
    859c:	e59f2030 	ldr	r2, [pc, #48]	; 85d4 <nrf_bit_clr+0xb0>
    85a0:	e59f1028 	ldr	r1, [pc, #40]	; 85d0 <nrf_bit_clr+0xac>
    85a4:	e59f0030 	ldr	r0, [pc, #48]	; 85dc <nrf_bit_clr+0xb8>
    85a8:	eb00125a 	bl	cf18 <printk>
    85ac:	eb001362 	bl	d33c <clean_reboot>
    85b0:	e59f3028 	ldr	r3, [pc, #40]	; 85e0 <nrf_bit_clr+0xbc>
    85b4:	e58d3000 	str	r3, [sp]
    85b8:	e3a03008 	mov	r3, #8, 0
    85bc:	e59f2020 	ldr	r2, [pc, #32]	; 85e4 <nrf_bit_clr+0xc0>
    85c0:	e59f1020 	ldr	r1, [pc, #32]	; 85e8 <nrf_bit_clr+0xc4>
    85c4:	e59f0010 	ldr	r0, [pc, #16]	; 85dc <nrf_bit_clr+0xb8>
    85c8:	eb001252 	bl	cf18 <printk>
    85cc:	eb00135a 	bl	d33c <clean_reboot>
    85d0:	0000dbc4 	.word	0x0000dbc4
    85d4:	0000e254 	.word	0x0000e254
    85d8:	0000dca0 	.word	0x0000dca0
    85dc:	0000dbd8 	.word	0x0000dbd8
    85e0:	0000dce0 	.word	0x0000dce0
    85e4:	0000e260 	.word	0x0000e260
    85e8:	0000dca8 	.word	0x0000dca8

000085ec <nrf_bit_set>:
    85ec:	e92d4070 	push	{r4, r5, r6, lr}
    85f0:	e24dd018 	sub	sp, sp, #24, 0
    85f4:	e3520007 	cmp	r2, #7, 0
    85f8:	8a000016 	bhi	8658 <nrf_bit_set+0x6c>
    85fc:	e1a05000 	mov	r5, r0
    8600:	e1a06001 	mov	r6, r1
    8604:	e1a04002 	mov	r4, r2
    8608:	e59f3088 	ldr	r3, [pc, #136]	; 8698 <nrf_bit_set+0xac>
    860c:	e58d300c 	str	r3, [sp, #12]
    8610:	e59f3084 	ldr	r3, [pc, #132]	; 869c <nrf_bit_set+0xb0>
    8614:	e58d3010 	str	r3, [sp, #16]
    8618:	e3a03093 	mov	r3, #147, 0	; 0x93
    861c:	e58d3014 	str	r3, [sp, #20]
    8620:	ebffff00 	bl	8228 <nrf_get8>
    8624:	e354001f 	cmp	r4, #31, 0
    8628:	8a000012 	bhi	8678 <nrf_bit_set+0x8c>
    862c:	e3a02001 	mov	r2, #1, 0
    8630:	e1802412 	orr	r2, r0, r2, lsl r4
    8634:	e6ef2072 	uxtb	r2, r2
    8638:	e58d2004 	str	r2, [sp, #4]
    863c:	e58d6000 	str	r6, [sp]
    8640:	e1a03005 	mov	r3, r5
    8644:	e28d2018 	add	r2, sp, #24, 0
    8648:	e9120007 	ldmdb	r2, {r0, r1, r2}
    864c:	ebffff1f 	bl	82d0 <nrf_put8_chk_helper>
    8650:	e28dd018 	add	sp, sp, #24, 0
    8654:	e8bd8070 	pop	{r4, r5, r6, pc}
    8658:	e59f3040 	ldr	r3, [pc, #64]	; 86a0 <nrf_bit_set+0xb4>
    865c:	e58d3000 	str	r3, [sp]
    8660:	e3a03092 	mov	r3, #146, 0	; 0x92
    8664:	e59f2030 	ldr	r2, [pc, #48]	; 869c <nrf_bit_set+0xb0>
    8668:	e59f1028 	ldr	r1, [pc, #40]	; 8698 <nrf_bit_set+0xac>
    866c:	e59f0030 	ldr	r0, [pc, #48]	; 86a4 <nrf_bit_set+0xb8>
    8670:	eb001228 	bl	cf18 <printk>
    8674:	eb001330 	bl	d33c <clean_reboot>
    8678:	e59f3028 	ldr	r3, [pc, #40]	; 86a8 <nrf_bit_set+0xbc>
    867c:	e58d3000 	str	r3, [sp]
    8680:	e3a0300f 	mov	r3, #15, 0
    8684:	e59f2020 	ldr	r2, [pc, #32]	; 86ac <nrf_bit_set+0xc0>
    8688:	e59f1020 	ldr	r1, [pc, #32]	; 86b0 <nrf_bit_set+0xc4>
    868c:	e59f0010 	ldr	r0, [pc, #16]	; 86a4 <nrf_bit_set+0xb8>
    8690:	eb001220 	bl	cf18 <printk>
    8694:	eb001328 	bl	d33c <clean_reboot>
    8698:	0000dbc4 	.word	0x0000dbc4
    869c:	0000e268 	.word	0x0000e268
    86a0:	0000dca0 	.word	0x0000dca0
    86a4:	0000dbd8 	.word	0x0000dbd8
    86a8:	0000dce0 	.word	0x0000dce0
    86ac:	0000e274 	.word	0x0000e274
    86b0:	0000dca8 	.word	0x0000dca8

000086b4 <nrf_bit_isset>:
    86b4:	e92d4010 	push	{r4, lr}
    86b8:	e24dd008 	sub	sp, sp, #8, 0
    86bc:	e3520007 	cmp	r2, #7, 0
    86c0:	8a000007 	bhi	86e4 <nrf_bit_isset+0x30>
    86c4:	e1a04002 	mov	r4, r2
    86c8:	ebfffed6 	bl	8228 <nrf_get8>
    86cc:	e354001f 	cmp	r4, #31, 0
    86d0:	8a00000b 	bhi	8704 <nrf_bit_isset+0x50>
    86d4:	e1a00430 	lsr	r0, r0, r4
    86d8:	e2000001 	and	r0, r0, #1, 0
    86dc:	e28dd008 	add	sp, sp, #8, 0
    86e0:	e8bd8010 	pop	{r4, pc}
    86e4:	e59f3038 	ldr	r3, [pc, #56]	; 8724 <nrf_bit_isset+0x70>
    86e8:	e58d3000 	str	r3, [sp]
    86ec:	e3a03097 	mov	r3, #151, 0	; 0x97
    86f0:	e59f2030 	ldr	r2, [pc, #48]	; 8728 <nrf_bit_isset+0x74>
    86f4:	e59f1030 	ldr	r1, [pc, #48]	; 872c <nrf_bit_isset+0x78>
    86f8:	e59f0030 	ldr	r0, [pc, #48]	; 8730 <nrf_bit_isset+0x7c>
    86fc:	eb001205 	bl	cf18 <printk>
    8700:	eb00130d 	bl	d33c <clean_reboot>
    8704:	e59f3028 	ldr	r3, [pc, #40]	; 8734 <nrf_bit_isset+0x80>
    8708:	e58d3000 	str	r3, [sp]
    870c:	e3a0301f 	mov	r3, #31, 0
    8710:	e59f2020 	ldr	r2, [pc, #32]	; 8738 <nrf_bit_isset+0x84>
    8714:	e59f1020 	ldr	r1, [pc, #32]	; 873c <nrf_bit_isset+0x88>
    8718:	e59f0010 	ldr	r0, [pc, #16]	; 8730 <nrf_bit_isset+0x7c>
    871c:	eb0011fd 	bl	cf18 <printk>
    8720:	eb001305 	bl	d33c <clean_reboot>
    8724:	0000dce8 	.word	0x0000dce8
    8728:	0000e27c 	.word	0x0000e27c
    872c:	0000dbc4 	.word	0x0000dbc4
    8730:	0000dbd8 	.word	0x0000dbd8
    8734:	0000dce0 	.word	0x0000dce0
    8738:	0000e28c 	.word	0x0000e28c
    873c:	0000dca8 	.word	0x0000dca8

00008740 <nrf_get_addr>:
    8740:	e52de004 	push	{lr}		; (str lr, [sp, #-4]!)
    8744:	e24dd014 	sub	sp, sp, #20, 0
    8748:	e1a03002 	mov	r3, r2
    874c:	e2422003 	sub	r2, r2, #3, 0
    8750:	e3520001 	cmp	r2, #1, 0
    8754:	8a000008 	bhi	877c <nrf_get_addr+0x3c>
    8758:	e3a02000 	mov	r2, #0, 0
    875c:	e58d200c 	str	r2, [sp, #12]
    8760:	e3530003 	cmp	r3, #3, 0
    8764:	1a00000c 	bne	879c <nrf_get_addr+0x5c>
    8768:	e28d200c 	add	r2, sp, #12, 0
    876c:	ebfffef9 	bl	8358 <nrf_getn>
    8770:	e59d000c 	ldr	r0, [sp, #12]
    8774:	e28dd014 	add	sp, sp, #20, 0
    8778:	e49df004 	pop	{pc}		; (ldr pc, [sp], #4)
    877c:	e59f3038 	ldr	r3, [pc, #56]	; 87bc <nrf_get_addr+0x7c>
    8780:	e58d3000 	str	r3, [sp]
    8784:	e3a0309f 	mov	r3, #159, 0	; 0x9f
    8788:	e59f2030 	ldr	r2, [pc, #48]	; 87c0 <nrf_get_addr+0x80>
    878c:	e59f1030 	ldr	r1, [pc, #48]	; 87c4 <nrf_get_addr+0x84>
    8790:	e59f0030 	ldr	r0, [pc, #48]	; 87c8 <nrf_get_addr+0x88>
    8794:	eb0011df 	bl	cf18 <printk>
    8798:	eb0012e7 	bl	d33c <clean_reboot>
    879c:	e59f3028 	ldr	r3, [pc, #40]	; 87cc <nrf_get_addr+0x8c>
    87a0:	e58d3000 	str	r3, [sp]
    87a4:	e3a030a1 	mov	r3, #161, 0	; 0xa1
    87a8:	e59f2010 	ldr	r2, [pc, #16]	; 87c0 <nrf_get_addr+0x80>
    87ac:	e59f1010 	ldr	r1, [pc, #16]	; 87c4 <nrf_get_addr+0x84>
    87b0:	e59f0010 	ldr	r0, [pc, #16]	; 87c8 <nrf_get_addr+0x88>
    87b4:	eb0011d7 	bl	cf18 <printk>
    87b8:	eb0012df 	bl	d33c <clean_reboot>
    87bc:	0000dcf0 	.word	0x0000dcf0
    87c0:	0000e298 	.word	0x0000e298
    87c4:	0000dbc4 	.word	0x0000dbc4
    87c8:	0000dbd8 	.word	0x0000dbd8
    87cc:	0000dd08 	.word	0x0000dd08

000087d0 <nrf_tx_flush>:
    87d0:	e52de004 	push	{lr}		; (str lr, [sp, #-4]!)
    87d4:	e24dd024 	sub	sp, sp, #36, 0	; 0x24
    87d8:	e1a03000 	mov	r3, r0
    87dc:	e3e0201e 	mvn	r2, #30, 0
    87e0:	e5cd201f 	strb	r2, [sp, #31]
    87e4:	e3a02000 	mov	r2, #0, 0
    87e8:	e5cd201e 	strb	r2, [sp, #30]
    87ec:	e3a02001 	mov	r2, #1, 0
    87f0:	e58d2010 	str	r2, [sp, #16]
    87f4:	e28d201f 	add	r2, sp, #31, 0
    87f8:	e58d200c 	str	r2, [sp, #12]
    87fc:	e28d201e 	add	r2, sp, #30, 0
    8800:	e58d2008 	str	r2, [sp, #8]
    8804:	e590101c 	ldr	r1, [r0, #28]
    8808:	e5900018 	ldr	r0, [r0, #24]
    880c:	e88d0003 	stm	sp, {r0, r1}
    8810:	e2830008 	add	r0, r3, #8, 0
    8814:	e890000f 	ldm	r0, {r0, r1, r2, r3}
    8818:	eb000988 	bl	ae40 <spi_n_transfer>
    881c:	e5dd001e 	ldrb	r0, [sp, #30]
    8820:	e28dd024 	add	sp, sp, #36, 0	; 0x24
    8824:	e49df004 	pop	{pc}		; (ldr pc, [sp], #4)

00008828 <nrf_rx_flush>:
    8828:	e52de004 	push	{lr}		; (str lr, [sp, #-4]!)
    882c:	e24dd024 	sub	sp, sp, #36, 0	; 0x24
    8830:	e1a03000 	mov	r3, r0
    8834:	e3e0201d 	mvn	r2, #29, 0
    8838:	e5cd201f 	strb	r2, [sp, #31]
    883c:	e3a02000 	mov	r2, #0, 0
    8840:	e5cd201e 	strb	r2, [sp, #30]
    8844:	e3a02001 	mov	r2, #1, 0
    8848:	e58d2010 	str	r2, [sp, #16]
    884c:	e28d201f 	add	r2, sp, #31, 0
    8850:	e58d200c 	str	r2, [sp, #12]
    8854:	e28d201e 	add	r2, sp, #30, 0
    8858:	e58d2008 	str	r2, [sp, #8]
    885c:	e590101c 	ldr	r1, [r0, #28]
    8860:	e5900018 	ldr	r0, [r0, #24]
    8864:	e88d0003 	stm	sp, {r0, r1}
    8868:	e2830008 	add	r0, r3, #8, 0
    886c:	e890000f 	ldm	r0, {r0, r1, r2, r3}
    8870:	eb000972 	bl	ae40 <spi_n_transfer>
    8874:	e5dd001e 	ldrb	r0, [sp, #30]
    8878:	e28dd024 	add	sp, sp, #36, 0	; 0x24
    887c:	e49df004 	pop	{pc}		; (ldr pc, [sp], #4)

00008880 <nrf_conf_print>:
    8880:	e92d4030 	push	{r4, r5, lr}
    8884:	e24dd00c 	sub	sp, sp, #12, 0
    8888:	e1a05000 	mov	r5, r0
    888c:	e1a04001 	mov	r4, r1
    8890:	e59f0024 	ldr	r0, [pc, #36]	; 88bc <nrf_conf_print+0x3c>
    8894:	eb00119f 	bl	cf18 <printk>
    8898:	e5d43000 	ldrb	r3, [r4]
    889c:	e58d3000 	str	r3, [sp]
    88a0:	e5d43002 	ldrb	r3, [r4, #2]
    88a4:	e5d42001 	ldrb	r2, [r4, #1]
    88a8:	e1a01005 	mov	r1, r5
    88ac:	e59f000c 	ldr	r0, [pc, #12]	; 88c0 <nrf_conf_print+0x40>
    88b0:	eb001198 	bl	cf18 <printk>
    88b4:	e28dd00c 	add	sp, sp, #12, 0
    88b8:	e8bd8030 	pop	{r4, r5, pc}
    88bc:	0000dd2c 	.word	0x0000dd2c
    88c0:	0000dd34 	.word	0x0000dd34

000088c4 <nrf_dump>:
    88c4:	e92d43f0 	push	{r4, r5, r6, r7, r8, r9, lr}
    88c8:	e24dd024 	sub	sp, sp, #36, 0	; 0x24
    88cc:	e1a04000 	mov	r4, r0
    88d0:	e1a05001 	mov	r5, r1
    88d4:	e59f75bc 	ldr	r7, [pc, #1468]	; 8e98 <nrf_dump+0x5d4>
    88d8:	e1a00007 	mov	r0, r7
    88dc:	eb00118d 	bl	cf18 <printk>
    88e0:	e59f05b4 	ldr	r0, [pc, #1460]	; 8e9c <nrf_dump+0x5d8>
    88e4:	eb00118b 	bl	cf18 <printk>
    88e8:	e1a00007 	mov	r0, r7
    88ec:	eb001189 	bl	cf18 <printk>
    88f0:	e1a01004 	mov	r1, r4
    88f4:	e59f05a4 	ldr	r0, [pc, #1444]	; 8ea0 <nrf_dump+0x5dc>
    88f8:	eb001186 	bl	cf18 <printk>
    88fc:	e1a01005 	mov	r1, r5
    8900:	e59f059c 	ldr	r0, [pc, #1436]	; 8ea4 <nrf_dump+0x5e0>
    8904:	ebffffdd 	bl	8880 <nrf_conf_print>
    8908:	e3a01000 	mov	r1, #0, 0
    890c:	e1a00005 	mov	r0, r5
    8910:	ebfffe44 	bl	8228 <nrf_get8>
    8914:	e1a04000 	mov	r4, r0
    8918:	e1a00007 	mov	r0, r7
    891c:	eb00117d 	bl	cf18 <printk>
    8920:	e1a020a4 	lsr	r2, r4, #1
    8924:	e1a03124 	lsr	r3, r4, #2
    8928:	e2033001 	and	r3, r3, #1, 0
    892c:	e1a011a4 	lsr	r1, r4, #3
    8930:	e2011001 	and	r1, r1, #1, 0
    8934:	e58d1004 	str	r1, [sp, #4]
    8938:	e58d3000 	str	r3, [sp]
    893c:	e2043001 	and	r3, r4, #1, 0
    8940:	e2022001 	and	r2, r2, #1, 0
    8944:	e1a01004 	mov	r1, r4
    8948:	e59f0558 	ldr	r0, [pc, #1368]	; 8ea8 <nrf_dump+0x5e4>
    894c:	eb001171 	bl	cf18 <printk>
    8950:	e1a01324 	lsr	r1, r4, #6
    8954:	e1a022a4 	lsr	r2, r4, #5
    8958:	e1a03224 	lsr	r3, r4, #4
    895c:	e2033001 	and	r3, r3, #1, 0
    8960:	e2022001 	and	r2, r2, #1, 0
    8964:	e2011001 	and	r1, r1, #1, 0
    8968:	e59f053c 	ldr	r0, [pc, #1340]	; 8eac <nrf_dump+0x5e8>
    896c:	eb001169 	bl	cf18 <printk>
    8970:	e3a01001 	mov	r1, #1, 0
    8974:	e1a00005 	mov	r0, r5
    8978:	ebfffe2a 	bl	8228 <nrf_get8>
    897c:	e1a06000 	mov	r6, r0
    8980:	e1a00007 	mov	r0, r7
    8984:	eb001163 	bl	cf18 <printk>
    8988:	e1a01006 	mov	r1, r6
    898c:	e59f051c 	ldr	r0, [pc, #1308]	; 8eb0 <nrf_dump+0x5ec>
    8990:	eb001160 	bl	cf18 <printk>
    8994:	e356003f 	cmp	r6, #63, 0	; 0x3f
    8998:	0a000003 	beq	89ac <nrf_dump+0xe8>
    899c:	e59f0510 	ldr	r0, [pc, #1296]	; 8eb4 <nrf_dump+0x5f0>
    89a0:	eb00115c 	bl	cf18 <printk>
    89a4:	e3a04000 	mov	r4, #0, 0
    89a8:	ea00000e 	b	89e8 <nrf_dump+0x124>
    89ac:	e59f0504 	ldr	r0, [pc, #1284]	; 8eb8 <nrf_dump+0x5f4>
    89b0:	eb001158 	bl	cf18 <printk>
    89b4:	ea000015 	b	8a10 <nrf_dump+0x14c>
    89b8:	e59f34fc 	ldr	r3, [pc, #1276]	; 8ebc <nrf_dump+0x5f8>
    89bc:	e58d3000 	str	r3, [sp]
    89c0:	e3a0301f 	mov	r3, #31, 0
    89c4:	e59f24f4 	ldr	r2, [pc, #1268]	; 8ec0 <nrf_dump+0x5fc>
    89c8:	e59f14f4 	ldr	r1, [pc, #1268]	; 8ec4 <nrf_dump+0x600>
    89cc:	e59f04f4 	ldr	r0, [pc, #1268]	; 8ec8 <nrf_dump+0x604>
    89d0:	eb001150 	bl	cf18 <printk>
    89d4:	eb001258 	bl	d33c <clean_reboot>
    89d8:	e1a01004 	mov	r1, r4
    89dc:	e59f04e8 	ldr	r0, [pc, #1256]	; 8ecc <nrf_dump+0x608>
    89e0:	eb00114c 	bl	cf18 <printk>
    89e4:	e2844001 	add	r4, r4, #1, 0
    89e8:	e3540005 	cmp	r4, #5, 0
    89ec:	ca000005 	bgt	8a08 <nrf_dump+0x144>
    89f0:	e354001f 	cmp	r4, #31, 0
    89f4:	8affffef 	bhi	89b8 <nrf_dump+0xf4>
    89f8:	e1a03436 	lsr	r3, r6, r4
    89fc:	e3130001 	tst	r3, #1, 0
    8a00:	0afffff7 	beq	89e4 <nrf_dump+0x120>
    8a04:	eafffff3 	b	89d8 <nrf_dump+0x114>
    8a08:	e59f04c0 	ldr	r0, [pc, #1216]	; 8ed0 <nrf_dump+0x60c>
    8a0c:	eb001141 	bl	cf18 <printk>
    8a10:	e3a01002 	mov	r1, #2, 0
    8a14:	e1a00005 	mov	r0, r5
    8a18:	ebfffe02 	bl	8228 <nrf_get8>
    8a1c:	e1a06000 	mov	r6, r0
    8a20:	e59f0470 	ldr	r0, [pc, #1136]	; 8e98 <nrf_dump+0x5d4>
    8a24:	eb00113b 	bl	cf18 <printk>
    8a28:	e1a01006 	mov	r1, r6
    8a2c:	e59f04a0 	ldr	r0, [pc, #1184]	; 8ed4 <nrf_dump+0x610>
    8a30:	eb001138 	bl	cf18 <printk>
    8a34:	e356003f 	cmp	r6, #63, 0	; 0x3f
    8a38:	0a000003 	beq	8a4c <nrf_dump+0x188>
    8a3c:	e59f0494 	ldr	r0, [pc, #1172]	; 8ed8 <nrf_dump+0x614>
    8a40:	eb001134 	bl	cf18 <printk>
    8a44:	e3a04000 	mov	r4, #0, 0
    8a48:	ea00000e 	b	8a88 <nrf_dump+0x1c4>
    8a4c:	e59f0488 	ldr	r0, [pc, #1160]	; 8edc <nrf_dump+0x618>
    8a50:	eb001130 	bl	cf18 <printk>
    8a54:	ea000015 	b	8ab0 <nrf_dump+0x1ec>
    8a58:	e59f345c 	ldr	r3, [pc, #1116]	; 8ebc <nrf_dump+0x5f8>
    8a5c:	e58d3000 	str	r3, [sp]
    8a60:	e3a0301f 	mov	r3, #31, 0
    8a64:	e59f2454 	ldr	r2, [pc, #1108]	; 8ec0 <nrf_dump+0x5fc>
    8a68:	e59f1454 	ldr	r1, [pc, #1108]	; 8ec4 <nrf_dump+0x600>
    8a6c:	e59f0454 	ldr	r0, [pc, #1108]	; 8ec8 <nrf_dump+0x604>
    8a70:	eb001128 	bl	cf18 <printk>
    8a74:	eb001230 	bl	d33c <clean_reboot>
    8a78:	e1a01004 	mov	r1, r4
    8a7c:	e59f045c 	ldr	r0, [pc, #1116]	; 8ee0 <nrf_dump+0x61c>
    8a80:	eb001124 	bl	cf18 <printk>
    8a84:	e2844001 	add	r4, r4, #1, 0
    8a88:	e3540005 	cmp	r4, #5, 0
    8a8c:	ca000005 	bgt	8aa8 <nrf_dump+0x1e4>
    8a90:	e354001f 	cmp	r4, #31, 0
    8a94:	8affffef 	bhi	8a58 <nrf_dump+0x194>
    8a98:	e1a03436 	lsr	r3, r6, r4
    8a9c:	e3130001 	tst	r3, #1, 0
    8aa0:	0afffff7 	beq	8a84 <nrf_dump+0x1c0>
    8aa4:	eafffff3 	b	8a78 <nrf_dump+0x1b4>
    8aa8:	e59f0420 	ldr	r0, [pc, #1056]	; 8ed0 <nrf_dump+0x60c>
    8aac:	eb001119 	bl	cf18 <printk>
    8ab0:	e3a01003 	mov	r1, #3, 0
    8ab4:	e1a00005 	mov	r0, r5
    8ab8:	ebfffdda 	bl	8228 <nrf_get8>
    8abc:	e2403001 	sub	r3, r0, #1, 0
    8ac0:	e6ef3073 	uxtb	r3, r3
    8ac4:	e3530002 	cmp	r3, #2, 0
    8ac8:	8a000036 	bhi	8ba8 <nrf_dump+0x2e4>
    8acc:	e3500001 	cmp	r0, #1, 0
    8ad0:	1a00003c 	bne	8bc8 <nrf_dump+0x304>
    8ad4:	e59f63bc 	ldr	r6, [pc, #956]	; 8e98 <nrf_dump+0x5d4>
    8ad8:	e1a00006 	mov	r0, r6
    8adc:	eb00110d 	bl	cf18 <printk>
    8ae0:	e3a01003 	mov	r1, #3, 0
    8ae4:	e59f03f8 	ldr	r0, [pc, #1016]	; 8ee4 <nrf_dump+0x620>
    8ae8:	eb00110a 	bl	cf18 <printk>
    8aec:	e3a01004 	mov	r1, #4, 0
    8af0:	e1a00005 	mov	r0, r5
    8af4:	ebfffdcb 	bl	8228 <nrf_get8>
    8af8:	e1a07000 	mov	r7, r0
    8afc:	e1a03220 	lsr	r3, r0, #4
    8b00:	e6ef3073 	uxtb	r3, r3
    8b04:	e2833001 	add	r3, r3, #1, 0
    8b08:	e0634283 	rsb	r4, r3, r3, lsl #5
    8b0c:	e0833104 	add	r3, r3, r4, lsl #2
    8b10:	e1a04083 	lsl	r4, r3, #1
    8b14:	e200800f 	and	r8, r0, #15, 0
    8b18:	e1a00006 	mov	r0, r6
    8b1c:	eb0010fd 	bl	cf18 <printk>
    8b20:	e1a03008 	mov	r3, r8
    8b24:	e1a02004 	mov	r2, r4
    8b28:	e1a01007 	mov	r1, r7
    8b2c:	e59f03b4 	ldr	r0, [pc, #948]	; 8ee8 <nrf_dump+0x624>
    8b30:	eb0010f8 	bl	cf18 <printk>
    8b34:	e3a01005 	mov	r1, #5, 0
    8b38:	e1a00005 	mov	r0, r5
    8b3c:	ebfffdb9 	bl	8228 <nrf_get8>
    8b40:	e1a04000 	mov	r4, r0
    8b44:	e1a00006 	mov	r0, r6
    8b48:	eb0010f2 	bl	cf18 <printk>
    8b4c:	e2842e19 	add	r2, r4, #400	; 0x190
    8b50:	e1a01004 	mov	r1, r4
    8b54:	e59f0390 	ldr	r0, [pc, #912]	; 8eec <nrf_dump+0x628>
    8b58:	eb0010ee 	bl	cf18 <printk>
    8b5c:	e3a01006 	mov	r1, #6, 0
    8b60:	e1a00005 	mov	r0, r5
    8b64:	ebfffdaf 	bl	8228 <nrf_get8>
    8b68:	e1a06000 	mov	r6, r0
    8b6c:	e1a042a0 	lsr	r4, r0, #5
    8b70:	e2144001 	ands	r4, r4, #1, 0
    8b74:	1a00001b 	bne	8be8 <nrf_dump+0x324>
    8b78:	e3100008 	tst	r0, #8, 0
    8b7c:	0a000021 	beq	8c08 <nrf_dump+0x344>
    8b80:	e3a08002 	mov	r8, #2, 0
    8b84:	e1a030a6 	lsr	r3, r6, #1
    8b88:	e2033003 	and	r3, r3, #3, 0
    8b8c:	e3530003 	cmp	r3, #3, 0
    8b90:	979ff103 	ldrls	pc, [pc, r3, lsl #2]
    8b94:	ea000021 	b	8c20 <nrf_dump+0x35c>
    8b98:	00008c38 	.word	0x00008c38
    8b9c:	00008d08 	.word	0x00008d08
    8ba0:	00008c10 	.word	0x00008c10
    8ba4:	00008c18 	.word	0x00008c18
    8ba8:	e59f3340 	ldr	r3, [pc, #832]	; 8ef0 <nrf_dump+0x62c>
    8bac:	e58d3000 	str	r3, [sp]
    8bb0:	e3a030f6 	mov	r3, #246, 0	; 0xf6
    8bb4:	e59f2338 	ldr	r2, [pc, #824]	; 8ef4 <nrf_dump+0x630>
    8bb8:	e59f1338 	ldr	r1, [pc, #824]	; 8ef8 <nrf_dump+0x634>
    8bbc:	e59f0304 	ldr	r0, [pc, #772]	; 8ec8 <nrf_dump+0x604>
    8bc0:	eb0010d4 	bl	cf18 <printk>
    8bc4:	eb0011dc 	bl	d33c <clean_reboot>
    8bc8:	e59f332c 	ldr	r3, [pc, #812]	; 8efc <nrf_dump+0x638>
    8bcc:	e58d3000 	str	r3, [sp]
    8bd0:	e3a030f8 	mov	r3, #248, 0	; 0xf8
    8bd4:	e59f2318 	ldr	r2, [pc, #792]	; 8ef4 <nrf_dump+0x630>
    8bd8:	e59f1318 	ldr	r1, [pc, #792]	; 8ef8 <nrf_dump+0x634>
    8bdc:	e59f02e4 	ldr	r0, [pc, #740]	; 8ec8 <nrf_dump+0x604>
    8be0:	eb0010cc 	bl	cf18 <printk>
    8be4:	eb0011d4 	bl	d33c <clean_reboot>
    8be8:	e59f3310 	ldr	r3, [pc, #784]	; 8f00 <nrf_dump+0x63c>
    8bec:	e58d3000 	str	r3, [sp]
    8bf0:	e59f330c 	ldr	r3, [pc, #780]	; 8f04 <nrf_dump+0x640>
    8bf4:	e59f22f8 	ldr	r2, [pc, #760]	; 8ef4 <nrf_dump+0x630>
    8bf8:	e59f12f8 	ldr	r1, [pc, #760]	; 8ef8 <nrf_dump+0x634>
    8bfc:	e59f02c4 	ldr	r0, [pc, #708]	; 8ec8 <nrf_dump+0x604>
    8c00:	eb0010c4 	bl	cf18 <printk>
    8c04:	eb0011cc 	bl	d33c <clean_reboot>
    8c08:	e3a08001 	mov	r8, #1, 0
    8c0c:	eaffffdc 	b	8b84 <nrf_dump+0x2c0>
    8c10:	e3e09005 	mvn	r9, #5, 0
    8c14:	ea000008 	b	8c3c <nrf_dump+0x378>
    8c18:	e3a09000 	mov	r9, #0, 0
    8c1c:	ea000006 	b	8c3c <nrf_dump+0x378>
    8c20:	e59f32e0 	ldr	r3, [pc, #736]	; 8f08 <nrf_dump+0x644>
    8c24:	e59f22c8 	ldr	r2, [pc, #712]	; 8ef4 <nrf_dump+0x630>
    8c28:	e59f12c8 	ldr	r1, [pc, #712]	; 8ef8 <nrf_dump+0x634>
    8c2c:	e59f02d8 	ldr	r0, [pc, #728]	; 8f0c <nrf_dump+0x648>
    8c30:	eb0010b8 	bl	cf18 <printk>
    8c34:	eb0011c0 	bl	d33c <clean_reboot>
    8c38:	e3e09011 	mvn	r9, #17, 0
    8c3c:	e59f7254 	ldr	r7, [pc, #596]	; 8e98 <nrf_dump+0x5d4>
    8c40:	e1a00007 	mov	r0, r7
    8c44:	eb0010b3 	bl	cf18 <printk>
    8c48:	e1a03009 	mov	r3, r9
    8c4c:	e1a02008 	mov	r2, r8
    8c50:	e1a01006 	mov	r1, r6
    8c54:	e59f02b4 	ldr	r0, [pc, #692]	; 8f10 <nrf_dump+0x64c>
    8c58:	eb0010ae 	bl	cf18 <printk>
    8c5c:	e3a01007 	mov	r1, #7, 0
    8c60:	e1a00005 	mov	r0, r5
    8c64:	ebfffd6f 	bl	8228 <nrf_get8>
    8c68:	e1a06000 	mov	r6, r0
    8c6c:	e1a00007 	mov	r0, r7
    8c70:	eb0010a8 	bl	cf18 <printk>
    8c74:	e1a02326 	lsr	r2, r6, #6
    8c78:	e2022001 	and	r2, r2, #1, 0
    8c7c:	e1a032a6 	lsr	r3, r6, #5
    8c80:	e2033001 	and	r3, r3, #1, 0
    8c84:	e1a00226 	lsr	r0, r6, #4
    8c88:	e2000001 	and	r0, r0, #1, 0
    8c8c:	e1a010a6 	lsr	r1, r6, #1
    8c90:	e2011007 	and	r1, r1, #7, 0
    8c94:	e3510007 	cmp	r1, #7, 0
    8c98:	0a00001c 	beq	8d10 <nrf_dump+0x44c>
    8c9c:	e59fc270 	ldr	ip, [pc, #624]	; 8f14 <nrf_dump+0x650>
    8ca0:	e206e001 	and	lr, r6, #1, 0
    8ca4:	e58de00c 	str	lr, [sp, #12]
    8ca8:	e58dc008 	str	ip, [sp, #8]
    8cac:	e58d1004 	str	r1, [sp, #4]
    8cb0:	e58d0000 	str	r0, [sp]
    8cb4:	e1a01006 	mov	r1, r6
    8cb8:	e59f0258 	ldr	r0, [pc, #600]	; 8f18 <nrf_dump+0x654>
    8cbc:	eb001095 	bl	cf18 <printk>
    8cc0:	e3a02000 	mov	r2, #0, 0
    8cc4:	e3a03000 	mov	r3, #0, 0
    8cc8:	e1cd21f8 	strd	r2, [sp, #24]
    8ccc:	e3a03003 	mov	r3, #3, 0
    8cd0:	e28d2018 	add	r2, sp, #24, 0
    8cd4:	e3a01010 	mov	r1, #16, 0
    8cd8:	e1a00005 	mov	r0, r5
    8cdc:	ebfffd9d 	bl	8358 <nrf_getn>
    8ce0:	e59f01b0 	ldr	r0, [pc, #432]	; 8e98 <nrf_dump+0x5d4>
    8ce4:	eb00108b 	bl	cf18 <printk>
    8ce8:	e1cd21d8 	ldrd	r2, [sp, #24]
    8cec:	e59f0228 	ldr	r0, [pc, #552]	; 8f1c <nrf_dump+0x658>
    8cf0:	eb001088 	bl	cf18 <printk>
    8cf4:	e3a01002 	mov	r1, #2, 0
    8cf8:	e1a00005 	mov	r0, r5
    8cfc:	ebfffd49 	bl	8228 <nrf_get8>
    8d00:	e1a07000 	mov	r7, r0
    8d04:	ea00000c 	b	8d3c <nrf_dump+0x478>
    8d08:	e3e0900b 	mvn	r9, #11, 0
    8d0c:	eaffffca 	b	8c3c <nrf_dump+0x378>
    8d10:	e59fc208 	ldr	ip, [pc, #520]	; 8f20 <nrf_dump+0x65c>
    8d14:	eaffffe1 	b	8ca0 <nrf_dump+0x3dc>
    8d18:	e59f319c 	ldr	r3, [pc, #412]	; 8ebc <nrf_dump+0x5f8>
    8d1c:	e58d3000 	str	r3, [sp]
    8d20:	e3a0301f 	mov	r3, #31, 0
    8d24:	e59f2194 	ldr	r2, [pc, #404]	; 8ec0 <nrf_dump+0x5fc>
    8d28:	e59f1194 	ldr	r1, [pc, #404]	; 8ec4 <nrf_dump+0x600>
    8d2c:	e59f0194 	ldr	r0, [pc, #404]	; 8ec8 <nrf_dump+0x604>
    8d30:	eb001078 	bl	cf18 <printk>
    8d34:	eb001180 	bl	d33c <clean_reboot>
    8d38:	e2844001 	add	r4, r4, #1, 0
    8d3c:	e3540005 	cmp	r4, #5, 0
    8d40:	8a000022 	bhi	8dd0 <nrf_dump+0x50c>
    8d44:	e354001f 	cmp	r4, #31, 0
    8d48:	8afffff2 	bhi	8d18 <nrf_dump+0x454>
    8d4c:	e1a03437 	lsr	r3, r7, r4
    8d50:	e3130001 	tst	r3, #1, 0
    8d54:	0afffff7 	beq	8d38 <nrf_dump+0x474>
    8d58:	e3a02000 	mov	r2, #0, 0
    8d5c:	e3a03000 	mov	r3, #0, 0
    8d60:	e1cd21f0 	strd	r2, [sp, #16]
    8d64:	e6ef6074 	uxtb	r6, r4
    8d68:	e286100a 	add	r1, r6, #10, 0
    8d6c:	e3a03003 	mov	r3, #3, 0
    8d70:	e28d2010 	add	r2, sp, #16, 0
    8d74:	e6ef1071 	uxtb	r1, r1
    8d78:	e1a00005 	mov	r0, r5
    8d7c:	ebfffd75 	bl	8358 <nrf_getn>
    8d80:	e59f8110 	ldr	r8, [pc, #272]	; 8e98 <nrf_dump+0x5d4>
    8d84:	e1a00008 	mov	r0, r8
    8d88:	eb001062 	bl	cf18 <printk>
    8d8c:	e1cd21d0 	ldrd	r2, [sp, #16]
    8d90:	e1a01004 	mov	r1, r4
    8d94:	e59f0188 	ldr	r0, [pc, #392]	; 8f24 <nrf_dump+0x660>
    8d98:	eb00105e 	bl	cf18 <printk>
    8d9c:	e2861011 	add	r1, r6, #17, 0
    8da0:	e6ef1071 	uxtb	r1, r1
    8da4:	e1a00005 	mov	r0, r5
    8da8:	ebfffd1e 	bl	8228 <nrf_get8>
    8dac:	e1a06000 	mov	r6, r0
    8db0:	e1a00008 	mov	r0, r8
    8db4:	eb001057 	bl	cf18 <printk>
    8db8:	e1a03006 	mov	r3, r6
    8dbc:	e1a02006 	mov	r2, r6
    8dc0:	e1a01004 	mov	r1, r4
    8dc4:	e59f015c 	ldr	r0, [pc, #348]	; 8f28 <nrf_dump+0x664>
    8dc8:	eb001052 	bl	cf18 <printk>
    8dcc:	eaffffd9 	b	8d38 <nrf_dump+0x474>
    8dd0:	e3a01017 	mov	r1, #23, 0
    8dd4:	e1a00005 	mov	r0, r5
    8dd8:	ebfffd12 	bl	8228 <nrf_get8>
    8ddc:	e1a04000 	mov	r4, r0
    8de0:	e59f00b0 	ldr	r0, [pc, #176]	; 8e98 <nrf_dump+0x5d4>
    8de4:	eb00104b 	bl	cf18 <printk>
    8de8:	e1a022a4 	lsr	r2, r4, #5
    8dec:	e1a03224 	lsr	r3, r4, #4
    8df0:	e1a010a4 	lsr	r1, r4, #1
    8df4:	e2011001 	and	r1, r1, #1, 0
    8df8:	e2040001 	and	r0, r4, #1, 0
    8dfc:	e58d0004 	str	r0, [sp, #4]
    8e00:	e58d1000 	str	r1, [sp]
    8e04:	e2033001 	and	r3, r3, #1, 0
    8e08:	e2022001 	and	r2, r2, #1, 0
    8e0c:	e1a01004 	mov	r1, r4
    8e10:	e59f0114 	ldr	r0, [pc, #276]	; 8f2c <nrf_dump+0x668>
    8e14:	eb00103f 	bl	cf18 <printk>
    8e18:	e3a0101d 	mov	r1, #29, 0
    8e1c:	e1a00005 	mov	r0, r5
    8e20:	ebfffd00 	bl	8228 <nrf_get8>
    8e24:	e3500000 	cmp	r0, #0, 0
    8e28:	1a00000a 	bne	8e58 <nrf_dump+0x594>
    8e2c:	e3a0101c 	mov	r1, #28, 0
    8e30:	e1a00005 	mov	r0, r5
    8e34:	ebfffcfb 	bl	8228 <nrf_get8>
    8e38:	e3500000 	cmp	r0, #0, 0
    8e3c:	1a00000d 	bne	8e78 <nrf_dump+0x5b4>
    8e40:	e59f0050 	ldr	r0, [pc, #80]	; 8e98 <nrf_dump+0x5d4>
    8e44:	eb001033 	bl	cf18 <printk>
    8e48:	e59f004c 	ldr	r0, [pc, #76]	; 8e9c <nrf_dump+0x5d8>
    8e4c:	eb001031 	bl	cf18 <printk>
    8e50:	e28dd024 	add	sp, sp, #36, 0	; 0x24
    8e54:	e8bd83f0 	pop	{r4, r5, r6, r7, r8, r9, pc}
    8e58:	e59f30d0 	ldr	r3, [pc, #208]	; 8f30 <nrf_dump+0x66c>
    8e5c:	e58d3000 	str	r3, [sp]
    8e60:	e59f30cc 	ldr	r3, [pc, #204]	; 8f34 <nrf_dump+0x670>
    8e64:	e59f2088 	ldr	r2, [pc, #136]	; 8ef4 <nrf_dump+0x630>
    8e68:	e59f1088 	ldr	r1, [pc, #136]	; 8ef8 <nrf_dump+0x634>
    8e6c:	e59f0054 	ldr	r0, [pc, #84]	; 8ec8 <nrf_dump+0x604>
    8e70:	eb001028 	bl	cf18 <printk>
    8e74:	eb001130 	bl	d33c <clean_reboot>
    8e78:	e59f30b8 	ldr	r3, [pc, #184]	; 8f38 <nrf_dump+0x674>
    8e7c:	e58d3000 	str	r3, [sp]
    8e80:	e59f30b4 	ldr	r3, [pc, #180]	; 8f3c <nrf_dump+0x678>
    8e84:	e59f2068 	ldr	r2, [pc, #104]	; 8ef4 <nrf_dump+0x630>
    8e88:	e59f1068 	ldr	r1, [pc, #104]	; 8ef8 <nrf_dump+0x634>
    8e8c:	e59f0034 	ldr	r0, [pc, #52]	; 8ec8 <nrf_dump+0x604>
    8e90:	eb001020 	bl	cf18 <printk>
    8e94:	eb001128 	bl	d33c <clean_reboot>
    8e98:	0000dd2c 	.word	0x0000dd2c
    8e9c:	0000dd70 	.word	0x0000dd70
    8ea0:	0000dda0 	.word	0x0000dda0
    8ea4:	0000dda8 	.word	0x0000dda8
    8ea8:	0000ddb0 	.word	0x0000ddb0
    8eac:	0000dde8 	.word	0x0000dde8
    8eb0:	0000de18 	.word	0x0000de18
    8eb4:	0000de4c 	.word	0x0000de4c
    8eb8:	0000de28 	.word	0x0000de28
    8ebc:	0000dce0 	.word	0x0000dce0
    8ec0:	0000e28c 	.word	0x0000e28c
    8ec4:	0000dca8 	.word	0x0000dca8
    8ec8:	0000dbd8 	.word	0x0000dbd8
    8ecc:	0000de5c 	.word	0x0000de5c
    8ed0:	0000ec80 	.word	0x0000ec80
    8ed4:	0000de70 	.word	0x0000de70
    8ed8:	0000de98 	.word	0x0000de98
    8edc:	0000de84 	.word	0x0000de84
    8ee0:	0000dea8 	.word	0x0000dea8
    8ee4:	0000deec 	.word	0x0000deec
    8ee8:	0000df0c 	.word	0x0000df0c
    8eec:	0000df44 	.word	0x0000df44
    8ef0:	0000deb4 	.word	0x0000deb4
    8ef4:	0000e2a8 	.word	0x0000e2a8
    8ef8:	0000dbc4 	.word	0x0000dbc4
    8efc:	0000dec8 	.word	0x0000dec8
    8f00:	0000df5c 	.word	0x0000df5c
    8f04:	00000105 	.word	0x00000105
    8f08:	0000010d 	.word	0x0000010d
    8f0c:	0000df6c 	.word	0x0000df6c
    8f10:	0000df8c 	.word	0x0000df8c
    8f14:	0000dd5c 	.word	0x0000dd5c
    8f18:	0000dfbc 	.word	0x0000dfbc
    8f1c:	0000e008 	.word	0x0000e008
    8f20:	0000dd68 	.word	0x0000dd68
    8f24:	0000e01c 	.word	0x0000e01c
    8f28:	0000e034 	.word	0x0000e034
    8f2c:	0000e064 	.word	0x0000e064
    8f30:	0000e0ac 	.word	0x0000e0ac
    8f34:	00000136 	.word	0x00000136
    8f38:	0000e0cc 	.word	0x0000e0cc
    8f3c:	00000137 	.word	0x00000137

00008f40 <nrf_set_addr>:
    8f40:	e92d4070 	push	{r4, r5, r6, lr}
    8f44:	e24dd010 	sub	sp, sp, #16, 0
    8f48:	e58d200c 	str	r2, [sp, #12]
    8f4c:	e3530003 	cmp	r3, #3, 0
    8f50:	1a000012 	bne	8fa0 <nrf_set_addr+0x60>
    8f54:	e1a05000 	mov	r5, r0
    8f58:	e1a06001 	mov	r6, r1
    8f5c:	e1a04003 	mov	r4, r3
    8f60:	e2433003 	sub	r3, r3, #3, 0
    8f64:	e3530001 	cmp	r3, #1, 0
    8f68:	8a000014 	bhi	8fc0 <nrf_set_addr+0x80>
    8f6c:	e1a03004 	mov	r3, r4
    8f70:	e28d200c 	add	r2, sp, #12, 0
    8f74:	e3811020 	orr	r1, r1, #32, 0
    8f78:	ebfffd2c 	bl	8430 <nrf_putn>
    8f7c:	e1a02004 	mov	r2, r4
    8f80:	e1a01006 	mov	r1, r6
    8f84:	e1a00005 	mov	r0, r5
    8f88:	ebfffdec 	bl	8740 <nrf_get_addr>
    8f8c:	e59d300c 	ldr	r3, [sp, #12]
    8f90:	e1500003 	cmp	r0, r3
    8f94:	1a000011 	bne	8fe0 <nrf_set_addr+0xa0>
    8f98:	e28dd010 	add	sp, sp, #16, 0
    8f9c:	e8bd8070 	pop	{r4, r5, r6, pc}
    8fa0:	e59f3064 	ldr	r3, [pc, #100]	; 900c <nrf_set_addr+0xcc>
    8fa4:	e58d3000 	str	r3, [sp]
    8fa8:	e3a030a7 	mov	r3, #167, 0	; 0xa7
    8fac:	e59f205c 	ldr	r2, [pc, #92]	; 9010 <nrf_set_addr+0xd0>
    8fb0:	e59f105c 	ldr	r1, [pc, #92]	; 9014 <nrf_set_addr+0xd4>
    8fb4:	e59f005c 	ldr	r0, [pc, #92]	; 9018 <nrf_set_addr+0xd8>
    8fb8:	eb000fd6 	bl	cf18 <printk>
    8fbc:	eb0010de 	bl	d33c <clean_reboot>
    8fc0:	e59f3054 	ldr	r3, [pc, #84]	; 901c <nrf_set_addr+0xdc>
    8fc4:	e58d3000 	str	r3, [sp]
    8fc8:	e3a030a8 	mov	r3, #168, 0	; 0xa8
    8fcc:	e59f203c 	ldr	r2, [pc, #60]	; 9010 <nrf_set_addr+0xd0>
    8fd0:	e59f103c 	ldr	r1, [pc, #60]	; 9014 <nrf_set_addr+0xd4>
    8fd4:	e59f003c 	ldr	r0, [pc, #60]	; 9018 <nrf_set_addr+0xd8>
    8fd8:	eb000fce 	bl	cf18 <printk>
    8fdc:	eb0010d6 	bl	d33c <clean_reboot>
    8fe0:	e1a01005 	mov	r1, r5
    8fe4:	e59f0034 	ldr	r0, [pc, #52]	; 9020 <nrf_set_addr+0xe0>
    8fe8:	ebfffe35 	bl	88c4 <nrf_dump>
    8fec:	e59f3030 	ldr	r3, [pc, #48]	; 9024 <nrf_set_addr+0xe4>
    8ff0:	e58d3000 	str	r3, [sp]
    8ff4:	e3a030ae 	mov	r3, #174, 0	; 0xae
    8ff8:	e59f2010 	ldr	r2, [pc, #16]	; 9010 <nrf_set_addr+0xd0>
    8ffc:	e59f1010 	ldr	r1, [pc, #16]	; 9014 <nrf_set_addr+0xd4>
    9000:	e59f0020 	ldr	r0, [pc, #32]	; 9028 <nrf_set_addr+0xe8>
    9004:	eb000fc3 	bl	cf18 <printk>
    9008:	eb0010cb 	bl	d33c <clean_reboot>
    900c:	0000dd08 	.word	0x0000dd08
    9010:	0000e2b4 	.word	0x0000e2b4
    9014:	0000dbc4 	.word	0x0000dbc4
    9018:	0000dbd8 	.word	0x0000dbd8
    901c:	0000dcf0 	.word	0x0000dcf0
    9020:	0000e0ec 	.word	0x0000e0ec
    9024:	0000e114 	.word	0x0000e114
    9028:	0000e100 	.word	0x0000e100

0000902c <nrf_stat_print>:
    902c:	e92d000e 	push	{r1, r2, r3}
    9030:	e92d41f0 	push	{r4, r5, r6, r7, r8, lr}
    9034:	e24dd024 	sub	sp, sp, #36, 0	; 0x24
    9038:	e1a04000 	mov	r4, r0
    903c:	e2803a02 	add	r3, r0, #8192	; 0x2000
    9040:	e593603c 	ldr	r6, [r3, #60]	; 0x3c
    9044:	eb001122 	bl	d4d4 <timer_get_usec>
    9048:	e0405006 	sub	r5, r0, r6
    904c:	e59f7234 	ldr	r7, [pc, #564]	; 9288 <nrf_stat_print+0x25c>
    9050:	e1a00007 	mov	r0, r7
    9054:	eb000faf 	bl	cf18 <printk>
    9058:	e28d1040 	add	r1, sp, #64, 0	; 0x40
    905c:	e58d1010 	str	r1, [sp, #16]
    9060:	e59d003c 	ldr	r0, [sp, #60]	; 0x3c
    9064:	eb000ffa 	bl	d054 <vprintk>
    9068:	e59f021c 	ldr	r0, [pc, #540]	; 928c <nrf_stat_print+0x260>
    906c:	eb000fa9 	bl	cf18 <printk>
    9070:	e1a00007 	mov	r0, r7
    9074:	eb000fa7 	bl	cf18 <printk>
    9078:	e59f0210 	ldr	r0, [pc, #528]	; 9290 <nrf_stat_print+0x264>
    907c:	eb000fa5 	bl	cf18 <printk>
    9080:	eb001113 	bl	d4d4 <timer_get_usec>
    9084:	e0400006 	sub	r0, r0, r6
    9088:	e59f1204 	ldr	r1, [pc, #516]	; 9294 <nrf_stat_print+0x268>
    908c:	e0813091 	umull	r3, r1, r1, r0
    9090:	e1a01921 	lsr	r1, r1, #18
    9094:	e0613281 	rsb	r3, r1, r1, lsl #5
    9098:	e0632303 	rsb	r2, r3, r3, lsl #6
    909c:	e0812182 	add	r2, r1, r2, lsl #3
    90a0:	e0402302 	sub	r2, r0, r2, lsl #6
    90a4:	e59f31ec 	ldr	r3, [pc, #492]	; 9298 <nrf_stat_print+0x26c>
    90a8:	e082c293 	umull	ip, r2, r3, r2
    90ac:	e1a02322 	lsr	r2, r2, #6
    90b0:	e083c093 	umull	ip, r3, r3, r0
    90b4:	e1a03323 	lsr	r3, r3, #6
    90b8:	e063c283 	rsb	ip, r3, r3, lsl #5
    90bc:	e083310c 	add	r3, r3, ip, lsl #2
    90c0:	e0403183 	sub	r3, r0, r3, lsl #3
    90c4:	e58d1014 	str	r1, [sp, #20]
    90c8:	e58d2018 	str	r2, [sp, #24]
    90cc:	e58d301c 	str	r3, [sp, #28]
    90d0:	e28d3004 	add	r3, sp, #4, 0
    90d4:	e28d2020 	add	r2, sp, #32, 0
    90d8:	e9120007 	ldmdb	r2, {r0, r1, r2}
    90dc:	e8830007 	stm	r3, {r0, r1, r2}
    90e0:	e3500000 	cmp	r0, #0, 0
    90e4:	1a000023 	bne	9178 <nrf_stat_print+0x14c>
    90e8:	e59d1008 	ldr	r1, [sp, #8]
    90ec:	e3510000 	cmp	r1, #0, 0
    90f0:	1a000024 	bne	9188 <nrf_stat_print+0x15c>
    90f4:	e59d100c 	ldr	r1, [sp, #12]
    90f8:	e3510000 	cmp	r1, #0, 0
    90fc:	1a000024 	bne	9194 <nrf_stat_print+0x168>
    9100:	e59f0194 	ldr	r0, [pc, #404]	; 929c <nrf_stat_print+0x270>
    9104:	eb000f83 	bl	cf18 <printk>
    9108:	e2843a02 	add	r3, r4, #8192	; 0x2000
    910c:	e5936040 	ldr	r6, [r3, #64]	; 0x40
    9110:	e3560000 	cmp	r6, #0, 0
    9114:	1a000021 	bne	91a0 <nrf_stat_print+0x174>
    9118:	e2843a02 	add	r3, r4, #8192	; 0x2000
    911c:	e5936044 	ldr	r6, [r3, #68]	; 0x44
    9120:	e3560000 	cmp	r6, #0, 0
    9124:	1a000023 	bne	91b8 <nrf_stat_print+0x18c>
    9128:	e2843a02 	add	r3, r4, #8192	; 0x2000
    912c:	e5931048 	ldr	r1, [r3, #72]	; 0x48
    9130:	e3510000 	cmp	r1, #0, 0
    9134:	1a000033 	bne	9208 <nrf_stat_print+0x1dc>
    9138:	e2843a02 	add	r3, r4, #8192	; 0x2000
    913c:	e593104c 	ldr	r1, [r3, #76]	; 0x4c
    9140:	e3510000 	cmp	r1, #0, 0
    9144:	1a000032 	bne	9214 <nrf_stat_print+0x1e8>
    9148:	e2843a02 	add	r3, r4, #8192	; 0x2000
    914c:	e5936050 	ldr	r6, [r3, #80]	; 0x50
    9150:	e3560000 	cmp	r6, #0, 0
    9154:	1a000031 	bne	9220 <nrf_stat_print+0x1f4>
    9158:	e2844a02 	add	r4, r4, #8192	; 0x2000
    915c:	e5944054 	ldr	r4, [r4, #84]	; 0x54
    9160:	e3540000 	cmp	r4, #0, 0
    9164:	1a000033 	bne	9238 <nrf_stat_print+0x20c>
    9168:	e28dd024 	add	sp, sp, #36, 0	; 0x24
    916c:	e8bd41f0 	pop	{r4, r5, r6, r7, r8, lr}
    9170:	e28dd00c 	add	sp, sp, #12, 0
    9174:	e12fff1e 	bx	lr
    9178:	e1a01000 	mov	r1, r0
    917c:	e59f011c 	ldr	r0, [pc, #284]	; 92a0 <nrf_stat_print+0x274>
    9180:	eb000f64 	bl	cf18 <printk>
    9184:	eaffffd7 	b	90e8 <nrf_stat_print+0xbc>
    9188:	e59f0114 	ldr	r0, [pc, #276]	; 92a4 <nrf_stat_print+0x278>
    918c:	eb000f61 	bl	cf18 <printk>
    9190:	eaffffd7 	b	90f4 <nrf_stat_print+0xc8>
    9194:	e59f010c 	ldr	r0, [pc, #268]	; 92a8 <nrf_stat_print+0x27c>
    9198:	eb000f5e 	bl	cf18 <printk>
    919c:	eaffffd7 	b	9100 <nrf_stat_print+0xd4>
    91a0:	e59f00e0 	ldr	r0, [pc, #224]	; 9288 <nrf_stat_print+0x25c>
    91a4:	eb000f5b 	bl	cf18 <printk>
    91a8:	e1a01006 	mov	r1, r6
    91ac:	e59f00f8 	ldr	r0, [pc, #248]	; 92ac <nrf_stat_print+0x280>
    91b0:	eb000f58 	bl	cf18 <printk>
    91b4:	eaffffd7 	b	9118 <nrf_stat_print+0xec>
    91b8:	e59f70d8 	ldr	r7, [pc, #216]	; 9298 <nrf_stat_print+0x26c>
    91bc:	e0813597 	umull	r3, r1, r7, r5
    91c0:	e0660286 	rsb	r0, r6, r6, lsl #5
    91c4:	e0860100 	add	r0, r6, r0, lsl #2
    91c8:	e1a01321 	lsr	r1, r1, #6
    91cc:	e1a00180 	lsl	r0, r0, #3
    91d0:	eb000e12 	bl	ca20 <__udivsi3>
    91d4:	e0873097 	umull	r3, r7, r7, r0
    91d8:	e1a07327 	lsr	r7, r7, #6
    91dc:	e0678287 	rsb	r8, r7, r7, lsl #5
    91e0:	e0878108 	add	r8, r7, r8, lsl #2
    91e4:	e0408188 	sub	r8, r0, r8, lsl #3
    91e8:	e59f0098 	ldr	r0, [pc, #152]	; 9288 <nrf_stat_print+0x25c>
    91ec:	eb000f49 	bl	cf18 <printk>
    91f0:	e1a03008 	mov	r3, r8
    91f4:	e1a02007 	mov	r2, r7
    91f8:	e1a01006 	mov	r1, r6
    91fc:	e59f00ac 	ldr	r0, [pc, #172]	; 92b0 <nrf_stat_print+0x284>
    9200:	eb000f44 	bl	cf18 <printk>
    9204:	eaffffc7 	b	9128 <nrf_stat_print+0xfc>
    9208:	e59f00a4 	ldr	r0, [pc, #164]	; 92b4 <nrf_stat_print+0x288>
    920c:	eb000f41 	bl	cf18 <printk>
    9210:	eaffffc8 	b	9138 <nrf_stat_print+0x10c>
    9214:	e59f009c 	ldr	r0, [pc, #156]	; 92b8 <nrf_stat_print+0x28c>
    9218:	eb000f3e 	bl	cf18 <printk>
    921c:	eaffffc9 	b	9148 <nrf_stat_print+0x11c>
    9220:	e59f0060 	ldr	r0, [pc, #96]	; 9288 <nrf_stat_print+0x25c>
    9224:	eb000f3b 	bl	cf18 <printk>
    9228:	e1a01006 	mov	r1, r6
    922c:	e59f0088 	ldr	r0, [pc, #136]	; 92bc <nrf_stat_print+0x290>
    9230:	eb000f38 	bl	cf18 <printk>
    9234:	eaffffc7 	b	9158 <nrf_stat_print+0x12c>
    9238:	e59f6058 	ldr	r6, [pc, #88]	; 9298 <nrf_stat_print+0x26c>
    923c:	e0813596 	umull	r3, r1, r6, r5
    9240:	e0640284 	rsb	r0, r4, r4, lsl #5
    9244:	e0840100 	add	r0, r4, r0, lsl #2
    9248:	e1a01321 	lsr	r1, r1, #6
    924c:	e1a00180 	lsl	r0, r0, #3
    9250:	eb000df2 	bl	ca20 <__udivsi3>
    9254:	e0853096 	umull	r3, r5, r6, r0
    9258:	e1a05325 	lsr	r5, r5, #6
    925c:	e0656285 	rsb	r6, r5, r5, lsl #5
    9260:	e0856106 	add	r6, r5, r6, lsl #2
    9264:	e0406186 	sub	r6, r0, r6, lsl #3
    9268:	e59f0018 	ldr	r0, [pc, #24]	; 9288 <nrf_stat_print+0x25c>
    926c:	eb000f29 	bl	cf18 <printk>
    9270:	e1a03006 	mov	r3, r6
    9274:	e1a02005 	mov	r2, r5
    9278:	e1a01004 	mov	r1, r4
    927c:	e59f003c 	ldr	r0, [pc, #60]	; 92c0 <nrf_stat_print+0x294>
    9280:	eb000f24 	bl	cf18 <printk>
    9284:	eaffffb7 	b	9168 <nrf_stat_print+0x13c>
    9288:	0000dd2c 	.word	0x0000dd2c
    928c:	0000ec80 	.word	0x0000ec80
    9290:	0000e13c 	.word	0x0000e13c
    9294:	431bde83 	.word	0x431bde83
    9298:	10624dd3 	.word	0x10624dd3
    929c:	0000e164 	.word	0x0000e164
    92a0:	0000e14c 	.word	0x0000e14c
    92a4:	0000e154 	.word	0x0000e154
    92a8:	0000e15c 	.word	0x0000e15c
    92ac:	0000e168 	.word	0x0000e168
    92b0:	0000e184 	.word	0x0000e184
    92b4:	0000e1b4 	.word	0x0000e1b4
    92b8:	0000e1c8 	.word	0x0000e1c8
    92bc:	0000e1d8 	.word	0x0000e1d8
    92c0:	0000e1f8 	.word	0x0000e1f8

000092c4 <timeout_start>:
    92c4:	e92d4010 	push	{r4, lr}
    92c8:	e1a04000 	mov	r4, r0
    92cc:	eb001080 	bl	d4d4 <timer_get_usec>
    92d0:	e5840000 	str	r0, [r4]
    92d4:	e3a02000 	mov	r2, #0, 0
    92d8:	e3a03000 	mov	r3, #0, 0
    92dc:	e1c420f8 	strd	r2, [r4, #8]
    92e0:	e1a00004 	mov	r0, r4
    92e4:	e8bd8010 	pop	{r4, pc}

000092e8 <nrf_nbytes_avail>:
    92e8:	e92d4010 	push	{r4, lr}
    92ec:	e1a04000 	mov	r4, r0
    92f0:	e1a00004 	mov	r0, r4
    92f4:	eb0003d9 	bl	a260 <nrf_get_pkts>
    92f8:	e3500000 	cmp	r0, #0, 0
    92fc:	1afffffb 	bne	92f0 <nrf_nbytes_avail+0x8>
    9300:	e2844a02 	add	r4, r4, #8192	; 0x2000
    9304:	e5940028 	ldr	r0, [r4, #40]	; 0x28
    9308:	e594302c 	ldr	r3, [r4, #44]	; 0x2c
    930c:	e0400003 	sub	r0, r0, r3
    9310:	e1a00980 	lsl	r0, r0, #19
    9314:	e1a009a0 	lsr	r0, r0, #19
    9318:	e8bd8010 	pop	{r4, pc}

0000931c <nrf_read_exact_noblk>:
    931c:	e92d4070 	push	{r4, r5, r6, lr}
    9320:	e24dd008 	sub	sp, sp, #8, 0
    9324:	e2525000 	subs	r5, r2, #0, 0
    9328:	0a000007 	beq	934c <nrf_read_exact_noblk+0x30>
    932c:	e1a04000 	mov	r4, r0
    9330:	e1a06001 	mov	r6, r1
    9334:	ebffffeb 	bl	92e8 <nrf_nbytes_avail>
    9338:	e1550000 	cmp	r5, r0
    933c:	8a000026 	bhi	93dc <nrf_read_exact_noblk+0xc0>
    9340:	e284e024 	add	lr, r4, #36, 0	; 0x24
    9344:	e3a0c000 	mov	ip, #0, 0
    9348:	ea00000f 	b	938c <nrf_read_exact_noblk+0x70>
    934c:	e59f3090 	ldr	r3, [pc, #144]	; 93e4 <nrf_read_exact_noblk+0xc8>
    9350:	e58d3000 	str	r3, [sp]
    9354:	e3a03016 	mov	r3, #22, 0
    9358:	e59f2088 	ldr	r2, [pc, #136]	; 93e8 <nrf_read_exact_noblk+0xcc>
    935c:	e59f1088 	ldr	r1, [pc, #136]	; 93ec <nrf_read_exact_noblk+0xd0>
    9360:	e59f0088 	ldr	r0, [pc, #136]	; 93f0 <nrf_read_exact_noblk+0xd4>
    9364:	eb000eeb 	bl	cf18 <printk>
    9368:	eb000ff3 	bl	d33c <clean_reboot>
    936c:	e7de2003 	ldrb	r2, [lr, r3]
    9370:	e2833001 	add	r3, r3, #1, 0
    9374:	e1a03983 	lsl	r3, r3, #19
    9378:	e1a039a3 	lsr	r3, r3, #19
    937c:	e28e0a02 	add	r0, lr, #8192	; 0x2000
    9380:	e5803008 	str	r3, [r0, #8]
    9384:	e5c12000 	strb	r2, [r1]
    9388:	e28cc001 	add	ip, ip, #1, 0
    938c:	e155000c 	cmp	r5, ip
    9390:	9a00000e 	bls	93d0 <nrf_read_exact_noblk+0xb4>
    9394:	e086100c 	add	r1, r6, ip
    9398:	e28e3a02 	add	r3, lr, #8192	; 0x2000
    939c:	e5932004 	ldr	r2, [r3, #4]
    93a0:	e5933008 	ldr	r3, [r3, #8]
    93a4:	e1520003 	cmp	r2, r3
    93a8:	1affffef 	bne	936c <nrf_read_exact_noblk+0x50>
    93ac:	e10f3000 	mrs	r3, CPSR
    93b0:	e3130080 	tst	r3, #128, 0	; 0x80
    93b4:	0afffff7 	beq	9398 <nrf_read_exact_noblk+0x7c>
    93b8:	e3a03060 	mov	r3, #96, 0	; 0x60
    93bc:	e59f2030 	ldr	r2, [pc, #48]	; 93f4 <nrf_read_exact_noblk+0xd8>
    93c0:	e59f1030 	ldr	r1, [pc, #48]	; 93f8 <nrf_read_exact_noblk+0xdc>
    93c4:	e59f0030 	ldr	r0, [pc, #48]	; 93fc <nrf_read_exact_noblk+0xe0>
    93c8:	eb000ed2 	bl	cf18 <printk>
    93cc:	eb000fda 	bl	d33c <clean_reboot>
    93d0:	e1a00005 	mov	r0, r5
    93d4:	e28dd008 	add	sp, sp, #8, 0
    93d8:	e8bd8070 	pop	{r4, r5, r6, pc}
    93dc:	e3a00000 	mov	r0, #0, 0
    93e0:	eafffffb 	b	93d4 <nrf_read_exact_noblk+0xb8>
    93e4:	0000dc94 	.word	0x0000dc94
    93e8:	0000e398 	.word	0x0000e398
    93ec:	0000e2c4 	.word	0x0000e2c4
    93f0:	0000dbd8 	.word	0x0000dbd8
    93f4:	0000e3b0 	.word	0x0000e3b0
    93f8:	0000e2d4 	.word	0x0000e2d4
    93fc:	0000e308 	.word	0x0000e308

00009400 <nrf_read_exact_timeout>:
    9400:	e92d43f0 	push	{r4, r5, r6, r7, r8, r9, lr}
    9404:	e24dd014 	sub	sp, sp, #20, 0
    9408:	e1a08000 	mov	r8, r0
    940c:	e1a07001 	mov	r7, r1
    9410:	e1a06002 	mov	r6, r2
    9414:	e1a09003 	mov	r9, r3
    9418:	e1a0000d 	mov	r0, sp
    941c:	ebffffa8 	bl	92c4 <timeout_start>
    9420:	e1a02006 	mov	r2, r6
    9424:	e1a01007 	mov	r1, r7
    9428:	e1a00008 	mov	r0, r8
    942c:	ebffffba 	bl	931c <nrf_read_exact_noblk>
    9430:	e3500000 	cmp	r0, #0, 0
    9434:	1a00000e 	bne	9474 <nrf_read_exact_timeout+0x74>
    9438:	eb001025 	bl	d4d4 <timer_get_usec>
    943c:	e59d3000 	ldr	r3, [sp]
    9440:	e0403003 	sub	r3, r0, r3
    9444:	e1cd40d8 	ldrd	r4, [sp, #8]
    9448:	e0944003 	adds	r4, r4, r3
    944c:	e2a55000 	adc	r5, r5, #0, 0
    9450:	e1cd40f8 	strd	r4, [sp, #8]
    9454:	e58d0000 	str	r0, [sp]
    9458:	e3a03000 	mov	r3, #0, 0
    945c:	e1530005 	cmp	r3, r5
    9460:	01590004 	cmpeq	r9, r4
    9464:	9a000001 	bls	9470 <nrf_read_exact_timeout+0x70>
    9468:	eb001013 	bl	d4bc <rpi_wait>
    946c:	eaffffeb 	b	9420 <nrf_read_exact_timeout+0x20>
    9470:	e3e00000 	mvn	r0, #0, 0
    9474:	e28dd014 	add	sp, sp, #20, 0
    9478:	e8bd83f0 	pop	{r4, r5, r6, r7, r8, r9, pc}

0000947c <nrf_read_exact>:
    947c:	e92d4030 	push	{r4, r5, lr}
    9480:	e24dd014 	sub	sp, sp, #20, 0
    9484:	e1a05000 	mov	r5, r0
    9488:	e1a04002 	mov	r4, r2
    948c:	e59f303c 	ldr	r3, [pc, #60]	; 94d0 <nrf_read_exact+0x54>
    9490:	ebffffda 	bl	9400 <nrf_read_exact_timeout>
    9494:	e1500004 	cmp	r0, r4
    9498:	1a000001 	bne	94a4 <nrf_read_exact+0x28>
    949c:	e28dd014 	add	sp, sp, #20, 0
    94a0:	e8bd8030 	pop	{r4, r5, pc}
    94a4:	e3a0300a 	mov	r3, #10, 0
    94a8:	e58d3008 	str	r3, [sp, #8]
    94ac:	e58d0004 	str	r0, [sp, #4]
    94b0:	e5953020 	ldr	r3, [r5, #32]
    94b4:	e58d3000 	str	r3, [sp]
    94b8:	e3a03043 	mov	r3, #67, 0	; 0x43
    94bc:	e59f2010 	ldr	r2, [pc, #16]	; 94d4 <nrf_read_exact+0x58>
    94c0:	e59f1010 	ldr	r1, [pc, #16]	; 94d8 <nrf_read_exact+0x5c>
    94c4:	e59f0010 	ldr	r0, [pc, #16]	; 94dc <nrf_read_exact+0x60>
    94c8:	eb000e92 	bl	cf18 <printk>
    94cc:	eb000f9a 	bl	d33c <clean_reboot>
    94d0:	00989680 	.word	0x00989680
    94d4:	0000e3b8 	.word	0x0000e3b8
    94d8:	0000e2c4 	.word	0x0000e2c4
    94dc:	0000e348 	.word	0x0000e348

000094e0 <nrf_send_ack>:
    94e0:	e92d4010 	push	{r4, lr}
    94e4:	eb00040a 	bl	a514 <nrf_tx_send_ack>
    94e8:	e8bd8010 	pop	{r4, pc}

000094ec <nrf_send_noack>:
    94ec:	e92d4010 	push	{r4, lr}
    94f0:	eb0004e4 	bl	a888 <nrf_tx_send_noack>
    94f4:	e8bd8010 	pop	{r4, pc}

000094f8 <nrf_rx_has_packet>:
    94f8:	e92d4010 	push	{r4, lr}
    94fc:	e3a02000 	mov	r2, #0, 0
    9500:	e3a01017 	mov	r1, #23, 0
    9504:	ebfffc6a 	bl	86b4 <nrf_bit_isset>
    9508:	e16f0f10 	clz	r0, r0
    950c:	e1a002a0 	lsr	r0, r0, #5
    9510:	e8bd8010 	pop	{r4, pc}

00009514 <nrf_rx_mode>:
    9514:	e92d4030 	push	{r4, r5, lr}
    9518:	e24dd01c 	sub	sp, sp, #28, 0
    951c:	e5d05001 	ldrb	r5, [r0, #1]
    9520:	e2453005 	sub	r3, r5, #5, 0
    9524:	e6ef3073 	uxtb	r3, r3
    9528:	e3530001 	cmp	r3, #1, 0
    952c:	8a000020 	bhi	95b4 <nrf_rx_mode+0xa0>
    9530:	e1a04000 	mov	r4, r0
    9534:	eb000fba 	bl	d424 <dev_barrier>
    9538:	e1a00005 	mov	r0, r5
    953c:	eb000d90 	bl	cb84 <gpio_set_off>
    9540:	e59f30d0 	ldr	r3, [pc, #208]	; 9618 <nrf_rx_mode+0x104>
    9544:	e58d300c 	str	r3, [sp, #12]
    9548:	e59f30cc 	ldr	r3, [pc, #204]	; 961c <nrf_rx_mode+0x108>
    954c:	e58d3010 	str	r3, [sp, #16]
    9550:	e3a03055 	mov	r3, #85, 0	; 0x55
    9554:	e58d3014 	str	r3, [sp, #20]
    9558:	e3a0307f 	mov	r3, #127, 0	; 0x7f
    955c:	e58d3004 	str	r3, [sp, #4]
    9560:	e3a03000 	mov	r3, #0, 0
    9564:	e58d3000 	str	r3, [sp]
    9568:	e1a03004 	mov	r3, r4
    956c:	e28d2018 	add	r2, sp, #24, 0
    9570:	e9120007 	ldmdb	r2, {r0, r1, r2}
    9574:	ebfffb55 	bl	82d0 <nrf_put8_chk_helper>
    9578:	e5d45001 	ldrb	r5, [r4, #1]
    957c:	e2453005 	sub	r3, r5, #5, 0
    9580:	e6ef3073 	uxtb	r3, r3
    9584:	e3530001 	cmp	r3, #1, 0
    9588:	8a000010 	bhi	95d0 <nrf_rx_mode+0xbc>
    958c:	eb000fa4 	bl	d424 <dev_barrier>
    9590:	e1a00005 	mov	r0, r5
    9594:	eb000d67 	bl	cb38 <gpio_set_on>
    9598:	e3a01000 	mov	r1, #0, 0
    959c:	e1a00004 	mov	r0, r4
    95a0:	ebfffb20 	bl	8228 <nrf_get8>
    95a4:	e3100001 	tst	r0, #1, 0
    95a8:	0a00000f 	beq	95ec <nrf_rx_mode+0xd8>
    95ac:	e28dd01c 	add	sp, sp, #28, 0
    95b0:	e8bd8030 	pop	{r4, r5, pc}
    95b4:	e58d5000 	str	r5, [sp]
    95b8:	e3a03045 	mov	r3, #69, 0	; 0x45
    95bc:	e59f205c 	ldr	r2, [pc, #92]	; 9620 <nrf_rx_mode+0x10c>
    95c0:	e59f1050 	ldr	r1, [pc, #80]	; 9618 <nrf_rx_mode+0x104>
    95c4:	e59f0058 	ldr	r0, [pc, #88]	; 9624 <nrf_rx_mode+0x110>
    95c8:	eb000e52 	bl	cf18 <printk>
    95cc:	eb000f5a 	bl	d33c <clean_reboot>
    95d0:	e58d5000 	str	r5, [sp]
    95d4:	e3a0304d 	mov	r3, #77, 0	; 0x4d
    95d8:	e59f2048 	ldr	r2, [pc, #72]	; 9628 <nrf_rx_mode+0x114>
    95dc:	e59f1034 	ldr	r1, [pc, #52]	; 9618 <nrf_rx_mode+0x104>
    95e0:	e59f003c 	ldr	r0, [pc, #60]	; 9624 <nrf_rx_mode+0x110>
    95e4:	eb000e4b 	bl	cf18 <printk>
    95e8:	eb000f53 	bl	d33c <clean_reboot>
    95ec:	e1a01004 	mov	r1, r4
    95f0:	e59f0034 	ldr	r0, [pc, #52]	; 962c <nrf_rx_mode+0x118>
    95f4:	ebfffcb2 	bl	88c4 <nrf_dump>
    95f8:	e59f3030 	ldr	r3, [pc, #48]	; 9630 <nrf_rx_mode+0x11c>
    95fc:	e58d3000 	str	r3, [sp]
    9600:	e3a03057 	mov	r3, #87, 0	; 0x57
    9604:	e59f2010 	ldr	r2, [pc, #16]	; 961c <nrf_rx_mode+0x108>
    9608:	e59f1008 	ldr	r1, [pc, #8]	; 9618 <nrf_rx_mode+0x104>
    960c:	e59f0020 	ldr	r0, [pc, #32]	; 9634 <nrf_rx_mode+0x120>
    9610:	eb000e40 	bl	cf18 <printk>
    9614:	eb000f48 	bl	d33c <clean_reboot>
    9618:	0000e3c8 	.word	0x0000e3c8
    961c:	0000e678 	.word	0x0000e678
    9620:	0000e670 	.word	0x0000e670
    9624:	0000e3d8 	.word	0x0000e3d8
    9628:	0000e684 	.word	0x0000e684
    962c:	0000e0ec 	.word	0x0000e0ec
    9630:	0000e404 	.word	0x0000e404
    9634:	0000e100 	.word	0x0000e100

00009638 <nrf_tx_mode>:
    9638:	e92d4030 	push	{r4, r5, lr}
    963c:	e24dd01c 	sub	sp, sp, #28, 0
    9640:	e5d05001 	ldrb	r5, [r0, #1]
    9644:	e2453005 	sub	r3, r5, #5, 0
    9648:	e6ef3073 	uxtb	r3, r3
    964c:	e3530001 	cmp	r3, #1, 0
    9650:	8a000020 	bhi	96d8 <nrf_tx_mode+0xa0>
    9654:	e1a04000 	mov	r4, r0
    9658:	eb000f71 	bl	d424 <dev_barrier>
    965c:	e1a00005 	mov	r0, r5
    9660:	eb000d47 	bl	cb84 <gpio_set_off>
    9664:	e59f30d0 	ldr	r3, [pc, #208]	; 973c <nrf_tx_mode+0x104>
    9668:	e58d300c 	str	r3, [sp, #12]
    966c:	e59f30cc 	ldr	r3, [pc, #204]	; 9740 <nrf_tx_mode+0x108>
    9670:	e58d3010 	str	r3, [sp, #16]
    9674:	e3a03069 	mov	r3, #105, 0	; 0x69
    9678:	e58d3014 	str	r3, [sp, #20]
    967c:	e3a0307e 	mov	r3, #126, 0	; 0x7e
    9680:	e58d3004 	str	r3, [sp, #4]
    9684:	e3a03000 	mov	r3, #0, 0
    9688:	e58d3000 	str	r3, [sp]
    968c:	e1a03004 	mov	r3, r4
    9690:	e28d2018 	add	r2, sp, #24, 0
    9694:	e9120007 	ldmdb	r2, {r0, r1, r2}
    9698:	ebfffb0c 	bl	82d0 <nrf_put8_chk_helper>
    969c:	e5d45001 	ldrb	r5, [r4, #1]
    96a0:	e2453005 	sub	r3, r5, #5, 0
    96a4:	e6ef3073 	uxtb	r3, r3
    96a8:	e3530001 	cmp	r3, #1, 0
    96ac:	8a000010 	bhi	96f4 <nrf_tx_mode+0xbc>
    96b0:	eb000f5b 	bl	d424 <dev_barrier>
    96b4:	e1a00005 	mov	r0, r5
    96b8:	eb000d1e 	bl	cb38 <gpio_set_on>
    96bc:	e3a01000 	mov	r1, #0, 0
    96c0:	e1a00004 	mov	r0, r4
    96c4:	ebfffad7 	bl	8228 <nrf_get8>
    96c8:	e3100001 	tst	r0, #1, 0
    96cc:	1a00000f 	bne	9710 <nrf_tx_mode+0xd8>
    96d0:	e28dd01c 	add	sp, sp, #28, 0
    96d4:	e8bd8030 	pop	{r4, r5, pc}
    96d8:	e58d5000 	str	r5, [sp]
    96dc:	e3a03045 	mov	r3, #69, 0	; 0x45
    96e0:	e59f205c 	ldr	r2, [pc, #92]	; 9744 <nrf_tx_mode+0x10c>
    96e4:	e59f1050 	ldr	r1, [pc, #80]	; 973c <nrf_tx_mode+0x104>
    96e8:	e59f0058 	ldr	r0, [pc, #88]	; 9748 <nrf_tx_mode+0x110>
    96ec:	eb000e09 	bl	cf18 <printk>
    96f0:	eb000f11 	bl	d33c <clean_reboot>
    96f4:	e58d5000 	str	r5, [sp]
    96f8:	e3a0304d 	mov	r3, #77, 0	; 0x4d
    96fc:	e59f2048 	ldr	r2, [pc, #72]	; 974c <nrf_tx_mode+0x114>
    9700:	e59f1034 	ldr	r1, [pc, #52]	; 973c <nrf_tx_mode+0x104>
    9704:	e59f003c 	ldr	r0, [pc, #60]	; 9748 <nrf_tx_mode+0x110>
    9708:	eb000e02 	bl	cf18 <printk>
    970c:	eb000f0a 	bl	d33c <clean_reboot>
    9710:	e1a01004 	mov	r1, r4
    9714:	e59f0034 	ldr	r0, [pc, #52]	; 9750 <nrf_tx_mode+0x118>
    9718:	ebfffc69 	bl	88c4 <nrf_dump>
    971c:	e59f3030 	ldr	r3, [pc, #48]	; 9754 <nrf_tx_mode+0x11c>
    9720:	e58d3000 	str	r3, [sp]
    9724:	e3a0306b 	mov	r3, #107, 0	; 0x6b
    9728:	e59f2010 	ldr	r2, [pc, #16]	; 9740 <nrf_tx_mode+0x108>
    972c:	e59f1008 	ldr	r1, [pc, #8]	; 973c <nrf_tx_mode+0x104>
    9730:	e59f0020 	ldr	r0, [pc, #32]	; 9758 <nrf_tx_mode+0x120>
    9734:	eb000df7 	bl	cf18 <printk>
    9738:	eb000eff 	bl	d33c <clean_reboot>
    973c:	0000e3c8 	.word	0x0000e3c8
    9740:	0000e68c 	.word	0x0000e68c
    9744:	0000e670 	.word	0x0000e670
    9748:	0000e3d8 	.word	0x0000e3d8
    974c:	0000e684 	.word	0x0000e684
    9750:	0000e0ec 	.word	0x0000e0ec
    9754:	0000e414 	.word	0x0000e414
    9758:	0000e100 	.word	0x0000e100

0000975c <nrf_init>:
    975c:	e92d47f0 	push	{r4, r5, r6, r7, r8, r9, sl, lr}
    9760:	e24ddc01 	sub	sp, sp, #256	; 0x100
    9764:	e28d5020 	add	r5, sp, #32, 0
    9768:	e8850003 	stm	r5, {r0, r1}
    976c:	e1a07002 	mov	r7, r2
    9770:	e1a08003 	mov	r8, r3
    9774:	e59f0a80 	ldr	r0, [pc, #2688]	; a1fc <nrf_init+0xaa0>
    9778:	eb000fe5 	bl	d714 <kmalloc>
    977c:	e1a04000 	mov	r4, r0
    9780:	e8950003 	ldm	r5, {r0, r1}
    9784:	e5840000 	str	r0, [r4]
    9788:	e5c41004 	strb	r1, [r4, #4]
    978c:	eb000f50 	bl	d4d4 <timer_get_usec>
    9790:	e2843a02 	add	r3, r4, #8192	; 0x2000
    9794:	e583003c 	str	r0, [r3, #60]	; 0x3c
    9798:	e3a05000 	mov	r5, #0, 0
    979c:	e5835040 	str	r5, [r3, #64]	; 0x40
    97a0:	e5835044 	str	r5, [r3, #68]	; 0x44
    97a4:	e5835048 	str	r5, [r3, #72]	; 0x48
    97a8:	e583504c 	str	r5, [r3, #76]	; 0x4c
    97ac:	e5835050 	str	r5, [r3, #80]	; 0x50
    97b0:	e5835054 	str	r5, [r3, #84]	; 0x54
    97b4:	e5dd2020 	ldrb	r2, [sp, #32]
    97b8:	e5dd1021 	ldrb	r1, [sp, #33]	; 0x21
    97bc:	e28d0008 	add	r0, sp, #8, 0
    97c0:	ebfffa66 	bl	8160 <nrf_spi_init>
    97c4:	e284e008 	add	lr, r4, #8, 0
    97c8:	e28dc008 	add	ip, sp, #8, 0
    97cc:	e8bc000f 	ldm	ip!, {r0, r1, r2, r3}
    97d0:	e8ae000f 	stmia	lr!, {r0, r1, r2, r3}
    97d4:	e89c0003 	ldm	ip, {r0, r1}
    97d8:	e88e0003 	stm	lr, {r0, r1}
    97dc:	e5847020 	str	r7, [r4, #32]
    97e0:	e2846024 	add	r6, r4, #36, 0	; 0x24
    97e4:	e59f2a14 	ldr	r2, [pc, #2580]	; a200 <nrf_init+0xaa4>
    97e8:	e1a01005 	mov	r1, r5
    97ec:	e1a00006 	mov	r0, r6
    97f0:	eb000da0 	bl	ce78 <memset>
    97f4:	e2861a02 	add	r1, r6, #8192	; 0x2000
    97f8:	e59f3a04 	ldr	r3, [pc, #2564]	; a204 <nrf_init+0xaa8>
    97fc:	e5813000 	str	r3, [r1]
    9800:	e5815008 	str	r5, [r1, #8]
    9804:	e5815004 	str	r5, [r1, #4]
    9808:	e581500c 	str	r5, [r1, #12]
    980c:	e5d13010 	ldrb	r3, [r1, #16]
    9810:	e3833001 	orr	r3, r3, #1, 0
    9814:	e5c13010 	strb	r3, [r1, #16]
    9818:	e5912004 	ldr	r2, [r1, #4]
    981c:	e5913008 	ldr	r3, [r1, #8]
    9820:	e1520003 	cmp	r2, r3
    9824:	1a000021 	bne	98b0 <nrf_init+0x154>
    9828:	e2862a02 	add	r2, r6, #8192	; 0x2000
    982c:	e5923004 	ldr	r3, [r2, #4]
    9830:	e2833001 	add	r3, r3, #1, 0
    9834:	e1a03983 	lsl	r3, r3, #19
    9838:	e1a039a3 	lsr	r3, r3, #19
    983c:	e5922008 	ldr	r2, [r2, #8]
    9840:	e1530002 	cmp	r3, r2
    9844:	0a000021 	beq	98d0 <nrf_init+0x174>
    9848:	e2862a02 	add	r2, r6, #8192	; 0x2000
    984c:	e5923004 	ldr	r3, [r2, #4]
    9850:	e5922008 	ldr	r2, [r2, #8]
    9854:	e0433002 	sub	r3, r3, r2
    9858:	e1a03983 	lsl	r3, r3, #19
    985c:	e1a039a3 	lsr	r3, r3, #19
    9860:	e3530000 	cmp	r3, #0, 0
    9864:	1a000021 	bne	98f0 <nrf_init+0x194>
    9868:	e2863a02 	add	r3, r6, #8192	; 0x2000
    986c:	e5932004 	ldr	r2, [r3, #4]
    9870:	e5933008 	ldr	r3, [r3, #8]
    9874:	e1520003 	cmp	r2, r3
    9878:	0a000024 	beq	9910 <nrf_init+0x1b4>
    987c:	e2833001 	add	r3, r3, #1, 0
    9880:	e1a03983 	lsl	r3, r3, #19
    9884:	e1a039a3 	lsr	r3, r3, #19
    9888:	e2866a02 	add	r6, r6, #8192	; 0x2000
    988c:	e5863008 	str	r3, [r6, #8]
    9890:	e59f3970 	ldr	r3, [pc, #2416]	; a208 <nrf_init+0xaac>
    9894:	e58d3000 	str	r3, [sp]
    9898:	e3a030d8 	mov	r3, #216, 0	; 0xd8
    989c:	e59f2968 	ldr	r2, [pc, #2408]	; a20c <nrf_init+0xab0>
    98a0:	e59f1968 	ldr	r1, [pc, #2408]	; a210 <nrf_init+0xab4>
    98a4:	e59f0968 	ldr	r0, [pc, #2408]	; a214 <nrf_init+0xab8>
    98a8:	eb000d9a 	bl	cf18 <printk>
    98ac:	eb000ea2 	bl	d33c <clean_reboot>
    98b0:	e59f3960 	ldr	r3, [pc, #2400]	; a218 <nrf_init+0xabc>
    98b4:	e58d3000 	str	r3, [sp]
    98b8:	e3a030d4 	mov	r3, #212, 0	; 0xd4
    98bc:	e59f2948 	ldr	r2, [pc, #2376]	; a20c <nrf_init+0xab0>
    98c0:	e59f1948 	ldr	r1, [pc, #2376]	; a210 <nrf_init+0xab4>
    98c4:	e59f0948 	ldr	r0, [pc, #2376]	; a214 <nrf_init+0xab8>
    98c8:	eb000d92 	bl	cf18 <printk>
    98cc:	eb000e9a 	bl	d33c <clean_reboot>
    98d0:	e59f3944 	ldr	r3, [pc, #2372]	; a21c <nrf_init+0xac0>
    98d4:	e58d3000 	str	r3, [sp]
    98d8:	e3a030d5 	mov	r3, #213, 0	; 0xd5
    98dc:	e59f2928 	ldr	r2, [pc, #2344]	; a20c <nrf_init+0xab0>
    98e0:	e59f1928 	ldr	r1, [pc, #2344]	; a210 <nrf_init+0xab4>
    98e4:	e59f0928 	ldr	r0, [pc, #2344]	; a214 <nrf_init+0xab8>
    98e8:	eb000d8a 	bl	cf18 <printk>
    98ec:	eb000e92 	bl	d33c <clean_reboot>
    98f0:	e59f3928 	ldr	r3, [pc, #2344]	; a220 <nrf_init+0xac4>
    98f4:	e58d3000 	str	r3, [sp]
    98f8:	e3a030d6 	mov	r3, #214, 0	; 0xd6
    98fc:	e59f2908 	ldr	r2, [pc, #2312]	; a20c <nrf_init+0xab0>
    9900:	e59f1908 	ldr	r1, [pc, #2312]	; a210 <nrf_init+0xab4>
    9904:	e59f0908 	ldr	r0, [pc, #2312]	; a214 <nrf_init+0xab8>
    9908:	eb000d82 	bl	cf18 <printk>
    990c:	eb000e8a 	bl	d33c <clean_reboot>
    9910:	e59f390c 	ldr	r3, [pc, #2316]	; a224 <nrf_init+0xac8>
    9914:	e58d3028 	str	r3, [sp, #40]	; 0x28
    9918:	e59f3908 	ldr	r3, [pc, #2312]	; a228 <nrf_init+0xacc>
    991c:	e58d302c 	str	r3, [sp, #44]	; 0x2c
    9920:	e3a03083 	mov	r3, #131, 0	; 0x83
    9924:	e58d3030 	str	r3, [sp, #48]	; 0x30
    9928:	e3a05000 	mov	r5, #0, 0
    992c:	e58d5004 	str	r5, [sp, #4]
    9930:	e58d5000 	str	r5, [sp]
    9934:	e1a03004 	mov	r3, r4
    9938:	e28d2028 	add	r2, sp, #40, 0	; 0x28
    993c:	e8920007 	ldm	r2, {r0, r1, r2}
    9940:	ebfffa62 	bl	82d0 <nrf_put8_chk_helper>
    9944:	e1a01005 	mov	r1, r5
    9948:	e1a00004 	mov	r0, r4
    994c:	ebfffa35 	bl	8228 <nrf_get8>
    9950:	e3100002 	tst	r0, #2, 0
    9954:	1a000062 	bne	9ae4 <nrf_init+0x388>
    9958:	e59f38c4 	ldr	r3, [pc, #2244]	; a224 <nrf_init+0xac8>
    995c:	e58d3034 	str	r3, [sp, #52]	; 0x34
    9960:	e59f38c0 	ldr	r3, [pc, #2240]	; a228 <nrf_init+0xacc>
    9964:	e58d3038 	str	r3, [sp, #56]	; 0x38
    9968:	e3a03087 	mov	r3, #135, 0	; 0x87
    996c:	e58d303c 	str	r3, [sp, #60]	; 0x3c
    9970:	e3a03000 	mov	r3, #0, 0
    9974:	e58d3004 	str	r3, [sp, #4]
    9978:	e3a03002 	mov	r3, #2, 0
    997c:	e58d3000 	str	r3, [sp]
    9980:	e1a03004 	mov	r3, r4
    9984:	e28d2034 	add	r2, sp, #52, 0	; 0x34
    9988:	e8920007 	ldm	r2, {r0, r1, r2}
    998c:	ebfffa4f 	bl	82d0 <nrf_put8_chk_helper>
    9990:	e3580000 	cmp	r8, #0, 0
    9994:	1a000072 	bne	9b64 <nrf_init+0x408>
    9998:	e59f9884 	ldr	r9, [pc, #2180]	; a224 <nrf_init+0xac8>
    999c:	e58d9040 	str	r9, [sp, #64]	; 0x40
    99a0:	e59f6880 	ldr	r6, [pc, #2176]	; a228 <nrf_init+0xacc>
    99a4:	e58d6044 	str	r6, [sp, #68]	; 0x44
    99a8:	e3a0308d 	mov	r3, #141, 0	; 0x8d
    99ac:	e58d3048 	str	r3, [sp, #72]	; 0x48
    99b0:	e3a05002 	mov	r5, #2, 0
    99b4:	e58d5004 	str	r5, [sp, #4]
    99b8:	e58d5000 	str	r5, [sp]
    99bc:	e1a03004 	mov	r3, r4
    99c0:	e28d2040 	add	r2, sp, #64, 0	; 0x40
    99c4:	e8920007 	ldm	r2, {r0, r1, r2}
    99c8:	ebfffa40 	bl	82d0 <nrf_put8_chk_helper>
    99cc:	e58d904c 	str	r9, [sp, #76]	; 0x4c
    99d0:	e58d6050 	str	r6, [sp, #80]	; 0x50
    99d4:	e3a0308e 	mov	r3, #142, 0	; 0x8e
    99d8:	e58d3054 	str	r3, [sp, #84]	; 0x54
    99dc:	e3a0a000 	mov	sl, #0, 0
    99e0:	e58da004 	str	sl, [sp, #4]
    99e4:	e3a03004 	mov	r3, #4, 0
    99e8:	e58d3000 	str	r3, [sp]
    99ec:	e1a03004 	mov	r3, r4
    99f0:	e28d204c 	add	r2, sp, #76, 0	; 0x4c
    99f4:	e8920007 	ldm	r2, {r0, r1, r2}
    99f8:	ebfffa34 	bl	82d0 <nrf_put8_chk_helper>
    99fc:	e58d9058 	str	r9, [sp, #88]	; 0x58
    9a00:	e58d605c 	str	r6, [sp, #92]	; 0x5c
    9a04:	e3a0308f 	mov	r3, #143, 0	; 0x8f
    9a08:	e58d3060 	str	r3, [sp, #96]	; 0x60
    9a0c:	e58da004 	str	sl, [sp, #4]
    9a10:	e3a03001 	mov	r3, #1, 0
    9a14:	e58d3000 	str	r3, [sp]
    9a18:	e1a03004 	mov	r3, r4
    9a1c:	e28d2058 	add	r2, sp, #88, 0	; 0x58
    9a20:	e8920007 	ldm	r2, {r0, r1, r2}
    9a24:	ebfffa29 	bl	82d0 <nrf_put8_chk_helper>
    9a28:	e1a01005 	mov	r1, r5
    9a2c:	e1a00004 	mov	r0, r4
    9a30:	ebfff9fc 	bl	8228 <nrf_get8>
    9a34:	e3100002 	tst	r0, #2, 0
    9a38:	0a000031 	beq	9b04 <nrf_init+0x3a8>
    9a3c:	e3a01001 	mov	r1, #1, 0
    9a40:	e1a00004 	mov	r0, r4
    9a44:	ebfff9f7 	bl	8228 <nrf_get8>
    9a48:	e3100002 	tst	r0, #2, 0
    9a4c:	1a000034 	bne	9b24 <nrf_init+0x3c8>
    9a50:	e3a01002 	mov	r1, #2, 0
    9a54:	e1a00004 	mov	r0, r4
    9a58:	ebfff9f2 	bl	8228 <nrf_get8>
    9a5c:	e3100001 	tst	r0, #1, 0
    9a60:	1a000037 	bne	9b44 <nrf_init+0x3e8>
    9a64:	e59f97b8 	ldr	r9, [pc, #1976]	; a224 <nrf_init+0xac8>
    9a68:	e58d9088 	str	r9, [sp, #136]	; 0x88
    9a6c:	e59f67b4 	ldr	r6, [pc, #1972]	; a228 <nrf_init+0xacc>
    9a70:	e58d608c 	str	r6, [sp, #140]	; 0x8c
    9a74:	e3a030ae 	mov	r3, #174, 0	; 0xae
    9a78:	e58d3090 	str	r3, [sp, #144]	; 0x90
    9a7c:	e3a03001 	mov	r3, #1, 0
    9a80:	e58d3004 	str	r3, [sp, #4]
    9a84:	e3a05003 	mov	r5, #3, 0
    9a88:	e58d5000 	str	r5, [sp]
    9a8c:	e1a03004 	mov	r3, r4
    9a90:	e28d2088 	add	r2, sp, #136, 0	; 0x88
    9a94:	e8920007 	ldm	r2, {r0, r1, r2}
    9a98:	ebfffa0c 	bl	82d0 <nrf_put8_chk_helper>
    9a9c:	e1a03005 	mov	r3, r5
    9aa0:	e3a02000 	mov	r2, #0, 0
    9aa4:	e3a01010 	mov	r1, #16, 0
    9aa8:	e1a00004 	mov	r0, r4
    9aac:	ebfffd23 	bl	8f40 <nrf_set_addr>
    9ab0:	e1a03005 	mov	r3, r5
    9ab4:	e1a02007 	mov	r2, r7
    9ab8:	e3a0100b 	mov	r1, #11, 0
    9abc:	e1a00004 	mov	r0, r4
    9ac0:	ebfffd1e 	bl	8f40 <nrf_set_addr>
    9ac4:	e58d9094 	str	r9, [sp, #148]	; 0x94
    9ac8:	e58d6098 	str	r6, [sp, #152]	; 0x98
    9acc:	e3a030b9 	mov	r3, #185, 0	; 0xb9
    9ad0:	e58d309c 	str	r3, [sp, #156]	; 0x9c
    9ad4:	e3580000 	cmp	r8, #0, 0
    9ad8:	0a00007a 	beq	9cc8 <nrf_init+0x56c>
    9adc:	e5dd3023 	ldrb	r3, [sp, #35]	; 0x23
    9ae0:	ea000079 	b	9ccc <nrf_init+0x570>
    9ae4:	e59f3740 	ldr	r3, [pc, #1856]	; a22c <nrf_init+0xad0>
    9ae8:	e58d3000 	str	r3, [sp]
    9aec:	e3a03084 	mov	r3, #132, 0	; 0x84
    9af0:	e59f2730 	ldr	r2, [pc, #1840]	; a228 <nrf_init+0xacc>
    9af4:	e59f1728 	ldr	r1, [pc, #1832]	; a224 <nrf_init+0xac8>
    9af8:	e59f0714 	ldr	r0, [pc, #1812]	; a214 <nrf_init+0xab8>
    9afc:	eb000d05 	bl	cf18 <printk>
    9b00:	eb000e0d 	bl	d33c <clean_reboot>
    9b04:	e59f3724 	ldr	r3, [pc, #1828]	; a230 <nrf_init+0xad4>
    9b08:	e58d3000 	str	r3, [sp]
    9b0c:	e3a03091 	mov	r3, #145, 0	; 0x91
    9b10:	e1a02006 	mov	r2, r6
    9b14:	e1a01009 	mov	r1, r9
    9b18:	e59f06f4 	ldr	r0, [pc, #1780]	; a214 <nrf_init+0xab8>
    9b1c:	eb000cfd 	bl	cf18 <printk>
    9b20:	eb000e05 	bl	d33c <clean_reboot>
    9b24:	e59f3708 	ldr	r3, [pc, #1800]	; a234 <nrf_init+0xad8>
    9b28:	e58d3000 	str	r3, [sp]
    9b2c:	e3a03092 	mov	r3, #146, 0	; 0x92
    9b30:	e59f26f0 	ldr	r2, [pc, #1776]	; a228 <nrf_init+0xacc>
    9b34:	e59f16e8 	ldr	r1, [pc, #1768]	; a224 <nrf_init+0xac8>
    9b38:	e59f06d4 	ldr	r0, [pc, #1748]	; a214 <nrf_init+0xab8>
    9b3c:	eb000cf5 	bl	cf18 <printk>
    9b40:	eb000dfd 	bl	d33c <clean_reboot>
    9b44:	e59f36ec 	ldr	r3, [pc, #1772]	; a238 <nrf_init+0xadc>
    9b48:	e58d3000 	str	r3, [sp]
    9b4c:	e3a03093 	mov	r3, #147, 0	; 0x93
    9b50:	e59f26d0 	ldr	r2, [pc, #1744]	; a228 <nrf_init+0xacc>
    9b54:	e59f16c8 	ldr	r1, [pc, #1736]	; a224 <nrf_init+0xac8>
    9b58:	e59f06b4 	ldr	r0, [pc, #1716]	; a214 <nrf_init+0xab8>
    9b5c:	eb000ced 	bl	cf18 <printk>
    9b60:	eb000df5 	bl	d33c <clean_reboot>
    9b64:	e59f66b8 	ldr	r6, [pc, #1720]	; a224 <nrf_init+0xac8>
    9b68:	e58d6064 	str	r6, [sp, #100]	; 0x64
    9b6c:	e59f56b4 	ldr	r5, [pc, #1716]	; a228 <nrf_init+0xacc>
    9b70:	e58d5068 	str	r5, [sp, #104]	; 0x68
    9b74:	e3a03098 	mov	r3, #152, 0	; 0x98
    9b78:	e58d306c 	str	r3, [sp, #108]	; 0x6c
    9b7c:	e3a0a003 	mov	sl, #3, 0
    9b80:	e58da004 	str	sl, [sp, #4]
    9b84:	e3a09002 	mov	r9, #2, 0
    9b88:	e58d9000 	str	r9, [sp]
    9b8c:	e1a03004 	mov	r3, r4
    9b90:	e28d2064 	add	r2, sp, #100, 0	; 0x64
    9b94:	e8920007 	ldm	r2, {r0, r1, r2}
    9b98:	ebfff9cc 	bl	82d0 <nrf_put8_chk_helper>
    9b9c:	e58d6070 	str	r6, [sp, #112]	; 0x70
    9ba0:	e58d5074 	str	r5, [sp, #116]	; 0x74
    9ba4:	e3a0309a 	mov	r3, #154, 0	; 0x9a
    9ba8:	e58d3078 	str	r3, [sp, #120]	; 0x78
    9bac:	e58da004 	str	sl, [sp, #4]
    9bb0:	e3a03001 	mov	r3, #1, 0
    9bb4:	e58d3000 	str	r3, [sp]
    9bb8:	e1a03004 	mov	r3, r4
    9bbc:	e28d2070 	add	r2, sp, #112, 0	; 0x70
    9bc0:	e8920007 	ldm	r2, {r0, r1, r2}
    9bc4:	ebfff9c1 	bl	82d0 <nrf_put8_chk_helper>
    9bc8:	e58d607c 	str	r6, [sp, #124]	; 0x7c
    9bcc:	e58d5080 	str	r5, [sp, #128]	; 0x80
    9bd0:	e3a030a2 	mov	r3, #162, 0	; 0xa2
    9bd4:	e58d3084 	str	r3, [sp, #132]	; 0x84
    9bd8:	e3a03076 	mov	r3, #118, 0	; 0x76
    9bdc:	e58d3004 	str	r3, [sp, #4]
    9be0:	e3a03004 	mov	r3, #4, 0
    9be4:	e58d3000 	str	r3, [sp]
    9be8:	e1a03004 	mov	r3, r4
    9bec:	e28d207c 	add	r2, sp, #124, 0	; 0x7c
    9bf0:	e8920007 	ldm	r2, {r0, r1, r2}
    9bf4:	ebfff9b5 	bl	82d0 <nrf_put8_chk_helper>
    9bf8:	e1a01009 	mov	r1, r9
    9bfc:	e1a00004 	mov	r0, r4
    9c00:	ebfff988 	bl	8228 <nrf_get8>
    9c04:	e3100001 	tst	r0, #1, 0
    9c08:	0a000016 	beq	9c68 <nrf_init+0x50c>
    9c0c:	e3a01002 	mov	r1, #2, 0
    9c10:	e1a00004 	mov	r0, r4
    9c14:	ebfff983 	bl	8228 <nrf_get8>
    9c18:	e3100002 	tst	r0, #2, 0
    9c1c:	0a000019 	beq	9c88 <nrf_init+0x52c>
    9c20:	e3a01001 	mov	r1, #1, 0
    9c24:	e1a00004 	mov	r0, r4
    9c28:	ebfff97e 	bl	8228 <nrf_get8>
    9c2c:	e3100002 	tst	r0, #2, 0
    9c30:	0a00001c 	beq	9ca8 <nrf_init+0x54c>
    9c34:	e3a01001 	mov	r1, #1, 0
    9c38:	e1a00004 	mov	r0, r4
    9c3c:	ebfff979 	bl	8228 <nrf_get8>
    9c40:	e3100001 	tst	r0, #1, 0
    9c44:	1affff86 	bne	9a64 <nrf_init+0x308>
    9c48:	e59f35ec 	ldr	r3, [pc, #1516]	; a23c <nrf_init+0xae0>
    9c4c:	e58d3000 	str	r3, [sp]
    9c50:	e3a030a8 	mov	r3, #168, 0	; 0xa8
    9c54:	e59f25cc 	ldr	r2, [pc, #1484]	; a228 <nrf_init+0xacc>
    9c58:	e59f15c4 	ldr	r1, [pc, #1476]	; a224 <nrf_init+0xac8>
    9c5c:	e59f05b0 	ldr	r0, [pc, #1456]	; a214 <nrf_init+0xab8>
    9c60:	eb000cac 	bl	cf18 <printk>
    9c64:	eb000db4 	bl	d33c <clean_reboot>
    9c68:	e59f35d0 	ldr	r3, [pc, #1488]	; a240 <nrf_init+0xae4>
    9c6c:	e58d3000 	str	r3, [sp]
    9c70:	e3a030a5 	mov	r3, #165, 0	; 0xa5
    9c74:	e1a02005 	mov	r2, r5
    9c78:	e1a01006 	mov	r1, r6
    9c7c:	e59f0590 	ldr	r0, [pc, #1424]	; a214 <nrf_init+0xab8>
    9c80:	eb000ca4 	bl	cf18 <printk>
    9c84:	eb000dac 	bl	d33c <clean_reboot>
    9c88:	e59f35a0 	ldr	r3, [pc, #1440]	; a230 <nrf_init+0xad4>
    9c8c:	e58d3000 	str	r3, [sp]
    9c90:	e3a030a6 	mov	r3, #166, 0	; 0xa6
    9c94:	e59f258c 	ldr	r2, [pc, #1420]	; a228 <nrf_init+0xacc>
    9c98:	e59f1584 	ldr	r1, [pc, #1412]	; a224 <nrf_init+0xac8>
    9c9c:	e59f0570 	ldr	r0, [pc, #1392]	; a214 <nrf_init+0xab8>
    9ca0:	eb000c9c 	bl	cf18 <printk>
    9ca4:	eb000da4 	bl	d33c <clean_reboot>
    9ca8:	e59f3594 	ldr	r3, [pc, #1428]	; a244 <nrf_init+0xae8>
    9cac:	e58d3000 	str	r3, [sp]
    9cb0:	e3a030a7 	mov	r3, #167, 0	; 0xa7
    9cb4:	e59f256c 	ldr	r2, [pc, #1388]	; a228 <nrf_init+0xacc>
    9cb8:	e59f1564 	ldr	r1, [pc, #1380]	; a224 <nrf_init+0xac8>
    9cbc:	e59f0550 	ldr	r0, [pc, #1360]	; a214 <nrf_init+0xab8>
    9cc0:	eb000c94 	bl	cf18 <printk>
    9cc4:	eb000d9c 	bl	d33c <clean_reboot>
    9cc8:	e3a03000 	mov	r3, #0, 0
    9ccc:	e58d3004 	str	r3, [sp, #4]
    9cd0:	e3a03011 	mov	r3, #17, 0
    9cd4:	e58d3000 	str	r3, [sp]
    9cd8:	e1a03004 	mov	r3, r4
    9cdc:	e28d2094 	add	r2, sp, #148, 0	; 0x94
    9ce0:	e8920007 	ldm	r2, {r0, r1, r2}
    9ce4:	ebfff979 	bl	82d0 <nrf_put8_chk_helper>
    9ce8:	e59f6534 	ldr	r6, [pc, #1332]	; a224 <nrf_init+0xac8>
    9cec:	e58d60a0 	str	r6, [sp, #160]	; 0xa0
    9cf0:	e59f5530 	ldr	r5, [pc, #1328]	; a228 <nrf_init+0xacc>
    9cf4:	e58d50a4 	str	r5, [sp, #164]	; 0xa4
    9cf8:	e3a030ba 	mov	r3, #186, 0	; 0xba
    9cfc:	e58d30a8 	str	r3, [sp, #168]	; 0xa8
    9d00:	e5dd3023 	ldrb	r3, [sp, #35]	; 0x23
    9d04:	e58d3004 	str	r3, [sp, #4]
    9d08:	e3a03012 	mov	r3, #18, 0
    9d0c:	e58d3000 	str	r3, [sp]
    9d10:	e1a03004 	mov	r3, r4
    9d14:	e28d20a0 	add	r2, sp, #160, 0	; 0xa0
    9d18:	e8920007 	ldm	r2, {r0, r1, r2}
    9d1c:	ebfff96b 	bl	82d0 <nrf_put8_chk_helper>
    9d20:	e58d60ac 	str	r6, [sp, #172]	; 0xac
    9d24:	e58d50b0 	str	r5, [sp, #176]	; 0xb0
    9d28:	e3a030bb 	mov	r3, #187, 0	; 0xbb
    9d2c:	e58d30b4 	str	r3, [sp, #180]	; 0xb4
    9d30:	e3a07000 	mov	r7, #0, 0
    9d34:	e58d7004 	str	r7, [sp, #4]
    9d38:	e3a03013 	mov	r3, #19, 0
    9d3c:	e58d3000 	str	r3, [sp]
    9d40:	e1a03004 	mov	r3, r4
    9d44:	e28d20ac 	add	r2, sp, #172, 0	; 0xac
    9d48:	e8920007 	ldm	r2, {r0, r1, r2}
    9d4c:	ebfff95f 	bl	82d0 <nrf_put8_chk_helper>
    9d50:	e58d60b8 	str	r6, [sp, #184]	; 0xb8
    9d54:	e58d50bc 	str	r5, [sp, #188]	; 0xbc
    9d58:	e3a030bc 	mov	r3, #188, 0	; 0xbc
    9d5c:	e58d30c0 	str	r3, [sp, #192]	; 0xc0
    9d60:	e58d7004 	str	r7, [sp, #4]
    9d64:	e3a03014 	mov	r3, #20, 0
    9d68:	e58d3000 	str	r3, [sp]
    9d6c:	e1a03004 	mov	r3, r4
    9d70:	e28d20b8 	add	r2, sp, #184, 0	; 0xb8
    9d74:	e8920007 	ldm	r2, {r0, r1, r2}
    9d78:	ebfff954 	bl	82d0 <nrf_put8_chk_helper>
    9d7c:	e58d60c4 	str	r6, [sp, #196]	; 0xc4
    9d80:	e58d50c8 	str	r5, [sp, #200]	; 0xc8
    9d84:	e3a030bd 	mov	r3, #189, 0	; 0xbd
    9d88:	e58d30cc 	str	r3, [sp, #204]	; 0xcc
    9d8c:	e58d7004 	str	r7, [sp, #4]
    9d90:	e3a03015 	mov	r3, #21, 0
    9d94:	e58d3000 	str	r3, [sp]
    9d98:	e1a03004 	mov	r3, r4
    9d9c:	e28d20c4 	add	r2, sp, #196, 0	; 0xc4
    9da0:	e8920007 	ldm	r2, {r0, r1, r2}
    9da4:	ebfff949 	bl	82d0 <nrf_put8_chk_helper>
    9da8:	e58d60d0 	str	r6, [sp, #208]	; 0xd0
    9dac:	e58d50d4 	str	r5, [sp, #212]	; 0xd4
    9db0:	e3a030be 	mov	r3, #190, 0	; 0xbe
    9db4:	e58d30d8 	str	r3, [sp, #216]	; 0xd8
    9db8:	e58d7004 	str	r7, [sp, #4]
    9dbc:	e3a03016 	mov	r3, #22, 0
    9dc0:	e58d3000 	str	r3, [sp]
    9dc4:	e1a03004 	mov	r3, r4
    9dc8:	e28d20d0 	add	r2, sp, #208, 0	; 0xd0
    9dcc:	e8920007 	ldm	r2, {r0, r1, r2}
    9dd0:	ebfff93e 	bl	82d0 <nrf_put8_chk_helper>
    9dd4:	e58d60dc 	str	r6, [sp, #220]	; 0xdc
    9dd8:	e58d50e0 	str	r5, [sp, #224]	; 0xe0
    9ddc:	e3a030c1 	mov	r3, #193, 0	; 0xc1
    9de0:	e58d30e4 	str	r3, [sp, #228]	; 0xe4
    9de4:	e3a03071 	mov	r3, #113, 0	; 0x71
    9de8:	e58d3004 	str	r3, [sp, #4]
    9dec:	e3a03005 	mov	r3, #5, 0
    9df0:	e58d3000 	str	r3, [sp]
    9df4:	e1a03004 	mov	r3, r4
    9df8:	e28d20dc 	add	r2, sp, #220, 0	; 0xdc
    9dfc:	e8920007 	ldm	r2, {r0, r1, r2}
    9e00:	ebfff932 	bl	82d0 <nrf_put8_chk_helper>
    9e04:	e58d60e8 	str	r6, [sp, #232]	; 0xe8
    9e08:	e58d50ec 	str	r5, [sp, #236]	; 0xec
    9e0c:	e3a030ca 	mov	r3, #202, 0	; 0xca
    9e10:	e58d30f0 	str	r3, [sp, #240]	; 0xf0
    9e14:	e3a0300e 	mov	r3, #14, 0
    9e18:	e58d3004 	str	r3, [sp, #4]
    9e1c:	e3a03006 	mov	r3, #6, 0
    9e20:	e58d3000 	str	r3, [sp]
    9e24:	e1a03004 	mov	r3, r4
    9e28:	e28d20e8 	add	r2, sp, #232, 0	; 0xe8
    9e2c:	e8920007 	ldm	r2, {r0, r1, r2}
    9e30:	ebfff926 	bl	82d0 <nrf_put8_chk_helper>
    9e34:	e3a01007 	mov	r1, #7, 0
    9e38:	e1a00004 	mov	r0, r4
    9e3c:	ebfff8f9 	bl	8228 <nrf_get8>
    9e40:	e350000e 	cmp	r0, #14, 0
    9e44:	1a000049 	bne	9f70 <nrf_init+0x814>
    9e48:	e3a02004 	mov	r2, #4, 0
    9e4c:	e3a01017 	mov	r1, #23, 0
    9e50:	e1a00004 	mov	r0, r4
    9e54:	ebfffa16 	bl	86b4 <nrf_bit_isset>
    9e58:	e3500000 	cmp	r0, #0, 0
    9e5c:	0a00004b 	beq	9f90 <nrf_init+0x834>
    9e60:	e3a02000 	mov	r2, #0, 0
    9e64:	e3a01017 	mov	r1, #23, 0
    9e68:	e1a00004 	mov	r0, r4
    9e6c:	ebfffa10 	bl	86b4 <nrf_bit_isset>
    9e70:	e3500000 	cmp	r0, #0, 0
    9e74:	0a00004d 	beq	9fb0 <nrf_init+0x854>
    9e78:	e59f33a4 	ldr	r3, [pc, #932]	; a224 <nrf_init+0xac8>
    9e7c:	e58d30f4 	str	r3, [sp, #244]	; 0xf4
    9e80:	e59f33a0 	ldr	r3, [pc, #928]	; a228 <nrf_init+0xacc>
    9e84:	e58d30f8 	str	r3, [sp, #248]	; 0xf8
    9e88:	e3a030e6 	mov	r3, #230, 0	; 0xe6
    9e8c:	e58d30fc 	str	r3, [sp, #252]	; 0xfc
    9e90:	e3a05002 	mov	r5, #2, 0
    9e94:	e58d5004 	str	r5, [sp, #4]
    9e98:	e3a03000 	mov	r3, #0, 0
    9e9c:	e58d3000 	str	r3, [sp]
    9ea0:	e1a03004 	mov	r3, r4
    9ea4:	e28d2c01 	add	r2, sp, #256	; 0x100
    9ea8:	e9120007 	ldmdb	r2, {r0, r1, r2}
    9eac:	ebfff907 	bl	82d0 <nrf_put8_chk_helper>
    9eb0:	e1a00005 	mov	r0, r5
    9eb4:	eb000d96 	bl	d514 <delay_ms>
    9eb8:	e1a00004 	mov	r0, r4
    9ebc:	ebfffd94 	bl	9514 <nrf_rx_mode>
    9ec0:	e3580000 	cmp	r8, #0, 0
    9ec4:	0a000078 	beq	a0ac <nrf_init+0x950>
    9ec8:	e3a01000 	mov	r1, #0, 0
    9ecc:	e1a00004 	mov	r0, r4
    9ed0:	ebfff8d4 	bl	8228 <nrf_get8>
    9ed4:	e350007f 	cmp	r0, #127, 0	; 0x7f
    9ed8:	1a00003c 	bne	9fd0 <nrf_init+0x874>
    9edc:	e3a01002 	mov	r1, #2, 0
    9ee0:	e1a00004 	mov	r0, r4
    9ee4:	ebfff8cf 	bl	8228 <nrf_get8>
    9ee8:	e3100001 	tst	r0, #1, 0
    9eec:	0a000042 	beq	9ffc <nrf_init+0x8a0>
    9ef0:	e3a01002 	mov	r1, #2, 0
    9ef4:	e1a00004 	mov	r0, r4
    9ef8:	ebfff8ca 	bl	8228 <nrf_get8>
    9efc:	e3100002 	tst	r0, #2, 0
    9f00:	0a000048 	beq	a028 <nrf_init+0x8cc>
    9f04:	e3a01001 	mov	r1, #1, 0
    9f08:	e1a00004 	mov	r0, r4
    9f0c:	ebfff8c5 	bl	8228 <nrf_get8>
    9f10:	e3100001 	tst	r0, #1, 0
    9f14:	0a00004e 	beq	a054 <nrf_init+0x8f8>
    9f18:	e3a01001 	mov	r1, #1, 0
    9f1c:	e1a00004 	mov	r0, r4
    9f20:	ebfff8c0 	bl	8228 <nrf_get8>
    9f24:	e3100002 	tst	r0, #2, 0
    9f28:	0a000054 	beq	a080 <nrf_init+0x924>
    9f2c:	e3a02004 	mov	r2, #4, 0
    9f30:	e3a01017 	mov	r1, #23, 0
    9f34:	e1a00004 	mov	r0, r4
    9f38:	ebfff9dd 	bl	86b4 <nrf_bit_isset>
    9f3c:	e3500000 	cmp	r0, #0, 0
    9f40:	1a000073 	bne	a114 <nrf_init+0x9b8>
    9f44:	e1a01004 	mov	r1, r4
    9f48:	e59f02f8 	ldr	r0, [pc, #760]	; a248 <nrf_init+0xaec>
    9f4c:	ebfffa5c 	bl	88c4 <nrf_dump>
    9f50:	e59f32f4 	ldr	r3, [pc, #756]	; a24c <nrf_init+0xaf0>
    9f54:	e58d3000 	str	r3, [sp]
    9f58:	e3a030f5 	mov	r3, #245, 0	; 0xf5
    9f5c:	e59f22c4 	ldr	r2, [pc, #708]	; a228 <nrf_init+0xacc>
    9f60:	e59f12bc 	ldr	r1, [pc, #700]	; a224 <nrf_init+0xac8>
    9f64:	e59f02e4 	ldr	r0, [pc, #740]	; a250 <nrf_init+0xaf4>
    9f68:	eb000bea 	bl	cf18 <printk>
    9f6c:	eb000cf2 	bl	d33c <clean_reboot>
    9f70:	e59f32dc 	ldr	r3, [pc, #732]	; a254 <nrf_init+0xaf8>
    9f74:	e58d3000 	str	r3, [sp]
    9f78:	e3a030d8 	mov	r3, #216, 0	; 0xd8
    9f7c:	e1a02005 	mov	r2, r5
    9f80:	e1a01006 	mov	r1, r6
    9f84:	e59f0288 	ldr	r0, [pc, #648]	; a214 <nrf_init+0xab8>
    9f88:	eb000be2 	bl	cf18 <printk>
    9f8c:	eb000cea 	bl	d33c <clean_reboot>
    9f90:	e59f32b4 	ldr	r3, [pc, #692]	; a24c <nrf_init+0xaf0>
    9f94:	e58d3000 	str	r3, [sp]
    9f98:	e3a030e1 	mov	r3, #225, 0	; 0xe1
    9f9c:	e59f2284 	ldr	r2, [pc, #644]	; a228 <nrf_init+0xacc>
    9fa0:	e59f127c 	ldr	r1, [pc, #636]	; a224 <nrf_init+0xac8>
    9fa4:	e59f0268 	ldr	r0, [pc, #616]	; a214 <nrf_init+0xab8>
    9fa8:	eb000bda 	bl	cf18 <printk>
    9fac:	eb000ce2 	bl	d33c <clean_reboot>
    9fb0:	e59f32a0 	ldr	r3, [pc, #672]	; a258 <nrf_init+0xafc>
    9fb4:	e58d3000 	str	r3, [sp]
    9fb8:	e3a030e2 	mov	r3, #226, 0	; 0xe2
    9fbc:	e59f2264 	ldr	r2, [pc, #612]	; a228 <nrf_init+0xacc>
    9fc0:	e59f125c 	ldr	r1, [pc, #604]	; a224 <nrf_init+0xac8>
    9fc4:	e59f0248 	ldr	r0, [pc, #584]	; a214 <nrf_init+0xab8>
    9fc8:	eb000bd2 	bl	cf18 <printk>
    9fcc:	eb000cda 	bl	d33c <clean_reboot>
    9fd0:	e1a01004 	mov	r1, r4
    9fd4:	e59f026c 	ldr	r0, [pc, #620]	; a248 <nrf_init+0xaec>
    9fd8:	ebfffa39 	bl	88c4 <nrf_dump>
    9fdc:	e59f3278 	ldr	r3, [pc, #632]	; a25c <nrf_init+0xb00>
    9fe0:	e58d3000 	str	r3, [sp]
    9fe4:	e3a030f0 	mov	r3, #240, 0	; 0xf0
    9fe8:	e59f2238 	ldr	r2, [pc, #568]	; a228 <nrf_init+0xacc>
    9fec:	e59f1230 	ldr	r1, [pc, #560]	; a224 <nrf_init+0xac8>
    9ff0:	e59f0258 	ldr	r0, [pc, #600]	; a250 <nrf_init+0xaf4>
    9ff4:	eb000bc7 	bl	cf18 <printk>
    9ff8:	eb000ccf 	bl	d33c <clean_reboot>
    9ffc:	e1a01004 	mov	r1, r4
    a000:	e59f0240 	ldr	r0, [pc, #576]	; a248 <nrf_init+0xaec>
    a004:	ebfffa2e 	bl	88c4 <nrf_dump>
    a008:	e59f3230 	ldr	r3, [pc, #560]	; a240 <nrf_init+0xae4>
    a00c:	e58d3000 	str	r3, [sp]
    a010:	e3a030f1 	mov	r3, #241, 0	; 0xf1
    a014:	e59f220c 	ldr	r2, [pc, #524]	; a228 <nrf_init+0xacc>
    a018:	e59f1204 	ldr	r1, [pc, #516]	; a224 <nrf_init+0xac8>
    a01c:	e59f022c 	ldr	r0, [pc, #556]	; a250 <nrf_init+0xaf4>
    a020:	eb000bbc 	bl	cf18 <printk>
    a024:	eb000cc4 	bl	d33c <clean_reboot>
    a028:	e1a01004 	mov	r1, r4
    a02c:	e59f0214 	ldr	r0, [pc, #532]	; a248 <nrf_init+0xaec>
    a030:	ebfffa23 	bl	88c4 <nrf_dump>
    a034:	e59f31f4 	ldr	r3, [pc, #500]	; a230 <nrf_init+0xad4>
    a038:	e58d3000 	str	r3, [sp]
    a03c:	e3a030f2 	mov	r3, #242, 0	; 0xf2
    a040:	e59f21e0 	ldr	r2, [pc, #480]	; a228 <nrf_init+0xacc>
    a044:	e59f11d8 	ldr	r1, [pc, #472]	; a224 <nrf_init+0xac8>
    a048:	e59f0200 	ldr	r0, [pc, #512]	; a250 <nrf_init+0xaf4>
    a04c:	eb000bb1 	bl	cf18 <printk>
    a050:	eb000cb9 	bl	d33c <clean_reboot>
    a054:	e1a01004 	mov	r1, r4
    a058:	e59f01e8 	ldr	r0, [pc, #488]	; a248 <nrf_init+0xaec>
    a05c:	ebfffa18 	bl	88c4 <nrf_dump>
    a060:	e59f31d4 	ldr	r3, [pc, #468]	; a23c <nrf_init+0xae0>
    a064:	e58d3000 	str	r3, [sp]
    a068:	e3a030f3 	mov	r3, #243, 0	; 0xf3
    a06c:	e59f21b4 	ldr	r2, [pc, #436]	; a228 <nrf_init+0xacc>
    a070:	e59f11ac 	ldr	r1, [pc, #428]	; a224 <nrf_init+0xac8>
    a074:	e59f01d4 	ldr	r0, [pc, #468]	; a250 <nrf_init+0xaf4>
    a078:	eb000ba6 	bl	cf18 <printk>
    a07c:	eb000cae 	bl	d33c <clean_reboot>
    a080:	e1a01004 	mov	r1, r4
    a084:	e59f01bc 	ldr	r0, [pc, #444]	; a248 <nrf_init+0xaec>
    a088:	ebfffa0d 	bl	88c4 <nrf_dump>
    a08c:	e59f31b0 	ldr	r3, [pc, #432]	; a244 <nrf_init+0xae8>
    a090:	e58d3000 	str	r3, [sp]
    a094:	e3a030f4 	mov	r3, #244, 0	; 0xf4
    a098:	e59f2188 	ldr	r2, [pc, #392]	; a228 <nrf_init+0xacc>
    a09c:	e59f1180 	ldr	r1, [pc, #384]	; a224 <nrf_init+0xac8>
    a0a0:	e59f01a8 	ldr	r0, [pc, #424]	; a250 <nrf_init+0xaf4>
    a0a4:	eb000b9b 	bl	cf18 <printk>
    a0a8:	eb000ca3 	bl	d33c <clean_reboot>
    a0ac:	e3a01000 	mov	r1, #0, 0
    a0b0:	e1a00004 	mov	r0, r4
    a0b4:	ebfff85b 	bl	8228 <nrf_get8>
    a0b8:	e350007f 	cmp	r0, #127, 0	; 0x7f
    a0bc:	1a000017 	bne	a120 <nrf_init+0x9c4>
    a0c0:	e3a01002 	mov	r1, #2, 0
    a0c4:	e1a00004 	mov	r0, r4
    a0c8:	ebfff856 	bl	8228 <nrf_get8>
    a0cc:	e3100001 	tst	r0, #1, 0
    a0d0:	1a00001d 	bne	a14c <nrf_init+0x9f0>
    a0d4:	e3a01002 	mov	r1, #2, 0
    a0d8:	e1a00004 	mov	r0, r4
    a0dc:	ebfff851 	bl	8228 <nrf_get8>
    a0e0:	e3100002 	tst	r0, #2, 0
    a0e4:	0a000023 	beq	a178 <nrf_init+0xa1c>
    a0e8:	e3a01001 	mov	r1, #1, 0
    a0ec:	e1a00004 	mov	r0, r4
    a0f0:	ebfff84c 	bl	8228 <nrf_get8>
    a0f4:	e3100002 	tst	r0, #2, 0
    a0f8:	1a000029 	bne	a1a4 <nrf_init+0xa48>
    a0fc:	e3a02004 	mov	r2, #4, 0
    a100:	e3a01017 	mov	r1, #23, 0
    a104:	e1a00004 	mov	r0, r4
    a108:	ebfff969 	bl	86b4 <nrf_bit_isset>
    a10c:	e3500000 	cmp	r0, #0, 0
    a110:	0a00002e 	beq	a1d0 <nrf_init+0xa74>
    a114:	e1a00004 	mov	r0, r4
    a118:	e28ddc01 	add	sp, sp, #256	; 0x100
    a11c:	e8bd87f0 	pop	{r4, r5, r6, r7, r8, r9, sl, pc}
    a120:	e1a01004 	mov	r1, r4
    a124:	e59f011c 	ldr	r0, [pc, #284]	; a248 <nrf_init+0xaec>
    a128:	ebfff9e5 	bl	88c4 <nrf_dump>
    a12c:	e59f3128 	ldr	r3, [pc, #296]	; a25c <nrf_init+0xb00>
    a130:	e58d3000 	str	r3, [sp]
    a134:	e3a030f7 	mov	r3, #247, 0	; 0xf7
    a138:	e59f20e8 	ldr	r2, [pc, #232]	; a228 <nrf_init+0xacc>
    a13c:	e59f10e0 	ldr	r1, [pc, #224]	; a224 <nrf_init+0xac8>
    a140:	e59f0108 	ldr	r0, [pc, #264]	; a250 <nrf_init+0xaf4>
    a144:	eb000b73 	bl	cf18 <printk>
    a148:	eb000c7b 	bl	d33c <clean_reboot>
    a14c:	e1a01004 	mov	r1, r4
    a150:	e59f00f0 	ldr	r0, [pc, #240]	; a248 <nrf_init+0xaec>
    a154:	ebfff9da 	bl	88c4 <nrf_dump>
    a158:	e59f30d8 	ldr	r3, [pc, #216]	; a238 <nrf_init+0xadc>
    a15c:	e58d3000 	str	r3, [sp]
    a160:	e3a030f8 	mov	r3, #248, 0	; 0xf8
    a164:	e59f20bc 	ldr	r2, [pc, #188]	; a228 <nrf_init+0xacc>
    a168:	e59f10b4 	ldr	r1, [pc, #180]	; a224 <nrf_init+0xac8>
    a16c:	e59f00dc 	ldr	r0, [pc, #220]	; a250 <nrf_init+0xaf4>
    a170:	eb000b68 	bl	cf18 <printk>
    a174:	eb000c70 	bl	d33c <clean_reboot>
    a178:	e1a01004 	mov	r1, r4
    a17c:	e59f00c4 	ldr	r0, [pc, #196]	; a248 <nrf_init+0xaec>
    a180:	ebfff9cf 	bl	88c4 <nrf_dump>
    a184:	e59f30a4 	ldr	r3, [pc, #164]	; a230 <nrf_init+0xad4>
    a188:	e58d3000 	str	r3, [sp]
    a18c:	e3a030f9 	mov	r3, #249, 0	; 0xf9
    a190:	e59f2090 	ldr	r2, [pc, #144]	; a228 <nrf_init+0xacc>
    a194:	e59f1088 	ldr	r1, [pc, #136]	; a224 <nrf_init+0xac8>
    a198:	e59f00b0 	ldr	r0, [pc, #176]	; a250 <nrf_init+0xaf4>
    a19c:	eb000b5d 	bl	cf18 <printk>
    a1a0:	eb000c65 	bl	d33c <clean_reboot>
    a1a4:	e1a01004 	mov	r1, r4
    a1a8:	e59f0098 	ldr	r0, [pc, #152]	; a248 <nrf_init+0xaec>
    a1ac:	ebfff9c4 	bl	88c4 <nrf_dump>
    a1b0:	e59f307c 	ldr	r3, [pc, #124]	; a234 <nrf_init+0xad8>
    a1b4:	e58d3000 	str	r3, [sp]
    a1b8:	e3a030fa 	mov	r3, #250, 0	; 0xfa
    a1bc:	e59f2064 	ldr	r2, [pc, #100]	; a228 <nrf_init+0xacc>
    a1c0:	e59f105c 	ldr	r1, [pc, #92]	; a224 <nrf_init+0xac8>
    a1c4:	e59f0084 	ldr	r0, [pc, #132]	; a250 <nrf_init+0xaf4>
    a1c8:	eb000b52 	bl	cf18 <printk>
    a1cc:	eb000c5a 	bl	d33c <clean_reboot>
    a1d0:	e1a01004 	mov	r1, r4
    a1d4:	e59f006c 	ldr	r0, [pc, #108]	; a248 <nrf_init+0xaec>
    a1d8:	ebfff9b9 	bl	88c4 <nrf_dump>
    a1dc:	e59f3068 	ldr	r3, [pc, #104]	; a24c <nrf_init+0xaf0>
    a1e0:	e58d3000 	str	r3, [sp]
    a1e4:	e3a030fb 	mov	r3, #251, 0	; 0xfb
    a1e8:	e59f2038 	ldr	r2, [pc, #56]	; a228 <nrf_init+0xacc>
    a1ec:	e59f1030 	ldr	r1, [pc, #48]	; a224 <nrf_init+0xac8>
    a1f0:	e59f0058 	ldr	r0, [pc, #88]	; a250 <nrf_init+0xaf4>
    a1f4:	eb000b47 	bl	cf18 <printk>
    a1f8:	eb000c4f 	bl	d33c <clean_reboot>
    a1fc:	00002058 	.word	0x00002058
    a200:	00002014 	.word	0x00002014
    a204:	12345678 	.word	0x12345678
    a208:	0000e450 	.word	0x0000e450
    a20c:	0000e698 	.word	0x0000e698
    a210:	0000e2d4 	.word	0x0000e2d4
    a214:	0000dbd8 	.word	0x0000dbd8
    a218:	0000e424 	.word	0x0000e424
    a21c:	0000e430 	.word	0x0000e430
    a220:	0000e43c 	.word	0x0000e43c
    a224:	0000e3c8 	.word	0x0000e3c8
    a228:	0000e6a0 	.word	0x0000e6a0
    a22c:	0000e478 	.word	0x0000e478
    a230:	0000e48c 	.word	0x0000e48c
    a234:	0000e4a8 	.word	0x0000e4a8
    a238:	0000e4c4 	.word	0x0000e4c4
    a23c:	0000e514 	.word	0x0000e514
    a240:	0000e4e0 	.word	0x0000e4e0
    a244:	0000e4fc 	.word	0x0000e4fc
    a248:	0000e0ec 	.word	0x0000e0ec
    a24c:	0000e550 	.word	0x0000e550
    a250:	0000e100 	.word	0x0000e100
    a254:	0000e52c 	.word	0x0000e52c
    a258:	0000e568 	.word	0x0000e568
    a25c:	0000e580 	.word	0x0000e580

0000a260 <nrf_get_pkts>:
    a260:	e92d48f0 	push	{r4, r5, r6, r7, fp, lr}
    a264:	e28db014 	add	fp, sp, #20, 0
    a268:	e24dd008 	sub	sp, sp, #8, 0
    a26c:	e1a04000 	mov	r4, r0
    a270:	e3a01000 	mov	r1, #0, 0
    a274:	ebfff7eb 	bl	8228 <nrf_get8>
    a278:	e350007f 	cmp	r0, #127, 0	; 0x7f
    a27c:	1a00000a 	bne	a2ac <nrf_get_pkts+0x4c>
    a280:	e1a00004 	mov	r0, r4
    a284:	ebfffc9b 	bl	94f8 <nrf_rx_has_packet>
    a288:	e3500000 	cmp	r0, #0, 0
    a28c:	0a000084 	beq	a4a4 <nrf_get_pkts+0x244>
    a290:	e5d43003 	ldrb	r3, [r4, #3]
    a294:	e2833007 	add	r3, r3, #7, 0
    a298:	e2033f7e 	and	r3, r3, #504	; 0x1f8
    a29c:	e04dd003 	sub	sp, sp, r3
    a2a0:	e28d6008 	add	r6, sp, #8, 0
    a2a4:	e3a05000 	mov	r5, #0, 0
    a2a8:	ea00005c 	b	a420 <nrf_get_pkts+0x1c0>
    a2ac:	e1a01004 	mov	r1, r4
    a2b0:	e59f0220 	ldr	r0, [pc, #544]	; a4d8 <nrf_get_pkts+0x278>
    a2b4:	ebfff982 	bl	88c4 <nrf_dump>
    a2b8:	e59f321c 	ldr	r3, [pc, #540]	; a4dc <nrf_get_pkts+0x27c>
    a2bc:	e58d3000 	str	r3, [sp]
    a2c0:	e3a03e17 	mov	r3, #368	; 0x170
    a2c4:	e59f2214 	ldr	r2, [pc, #532]	; a4e0 <nrf_get_pkts+0x280>
    a2c8:	e59f1214 	ldr	r1, [pc, #532]	; a4e4 <nrf_get_pkts+0x284>
    a2cc:	e59f0214 	ldr	r0, [pc, #532]	; a4e8 <nrf_get_pkts+0x288>
    a2d0:	eb000b10 	bl	cf18 <printk>
    a2d4:	eb000c18 	bl	d33c <clean_reboot>
    a2d8:	e59f320c 	ldr	r3, [pc, #524]	; a4ec <nrf_get_pkts+0x28c>
    a2dc:	e58d3000 	str	r3, [sp]
    a2e0:	e59f3208 	ldr	r3, [pc, #520]	; a4f0 <nrf_get_pkts+0x290>
    a2e4:	e59f21f4 	ldr	r2, [pc, #500]	; a4e0 <nrf_get_pkts+0x280>
    a2e8:	e59f11f4 	ldr	r1, [pc, #500]	; a4e4 <nrf_get_pkts+0x284>
    a2ec:	e59f0200 	ldr	r0, [pc, #512]	; a4f4 <nrf_get_pkts+0x294>
    a2f0:	eb000b08 	bl	cf18 <printk>
    a2f4:	eb000c10 	bl	d33c <clean_reboot>
    a2f8:	e59f31f8 	ldr	r3, [pc, #504]	; a4f8 <nrf_get_pkts+0x298>
    a2fc:	e58d3000 	str	r3, [sp]
    a300:	e3a030a2 	mov	r3, #162, 0	; 0xa2
    a304:	e59f21f0 	ldr	r2, [pc, #496]	; a4fc <nrf_get_pkts+0x29c>
    a308:	e59f11f0 	ldr	r1, [pc, #496]	; a500 <nrf_get_pkts+0x2a0>
    a30c:	e59f01e0 	ldr	r0, [pc, #480]	; a4f4 <nrf_get_pkts+0x294>
    a310:	eb000b00 	bl	cf18 <printk>
    a314:	eb000c08 	bl	d33c <clean_reboot>
    a318:	e59f31e4 	ldr	r3, [pc, #484]	; a504 <nrf_get_pkts+0x2a4>
    a31c:	e58d3000 	str	r3, [sp]
    a320:	e3a0306b 	mov	r3, #107, 0	; 0x6b
    a324:	e59f21dc 	ldr	r2, [pc, #476]	; a508 <nrf_get_pkts+0x2a8>
    a328:	e59f11d0 	ldr	r1, [pc, #464]	; a500 <nrf_get_pkts+0x2a0>
    a32c:	e59f01c0 	ldr	r0, [pc, #448]	; a4f4 <nrf_get_pkts+0x294>
    a330:	eb000af8 	bl	cf18 <printk>
    a334:	eb000c00 	bl	d33c <clean_reboot>
    a338:	e3a03000 	mov	r3, #0, 0
    a33c:	e3530000 	cmp	r3, #0, 0
    a340:	0a00001d 	beq	a3bc <nrf_get_pkts+0x15c>
    a344:	e28cc001 	add	ip, ip, #1, 0
    a348:	e150000c 	cmp	r0, ip
    a34c:	9a000020 	bls	a3d4 <nrf_get_pkts+0x174>
    a350:	e7d6e00c 	ldrb	lr, [r6, ip]
    a354:	e2812a02 	add	r2, r1, #8192	; 0x2000
    a358:	e5923004 	ldr	r3, [r2, #4]
    a35c:	e2833001 	add	r3, r3, #1, 0
    a360:	e1a03983 	lsl	r3, r3, #19
    a364:	e1a039a3 	lsr	r3, r3, #19
    a368:	e5922008 	ldr	r2, [r2, #8]
    a36c:	e1530002 	cmp	r3, r2
    a370:	0afffff0 	beq	a338 <nrf_get_pkts+0xd8>
    a374:	e2817a02 	add	r7, r1, #8192	; 0x2000
    a378:	e5972004 	ldr	r2, [r7, #4]
    a37c:	e5973004 	ldr	r3, [r7, #4]
    a380:	e5977008 	ldr	r7, [r7, #8]
    a384:	e0433007 	sub	r3, r3, r7
    a388:	e1e03003 	mvn	r3, r3
    a38c:	e1a03983 	lsl	r3, r3, #19
    a390:	e1a039a3 	lsr	r3, r3, #19
    a394:	e3530000 	cmp	r3, #0, 0
    a398:	0affffde 	beq	a318 <nrf_get_pkts+0xb8>
    a39c:	e7c1e002 	strb	lr, [r1, r2]
    a3a0:	e2823001 	add	r3, r2, #1, 0
    a3a4:	e1a03983 	lsl	r3, r3, #19
    a3a8:	e1a039a3 	lsr	r3, r3, #19
    a3ac:	e2812a02 	add	r2, r1, #8192	; 0x2000
    a3b0:	e5823004 	str	r3, [r2, #4]
    a3b4:	e3a03001 	mov	r3, #1, 0
    a3b8:	eaffffdf 	b	a33c <nrf_get_pkts+0xdc>
    a3bc:	e3a030ab 	mov	r3, #171, 0	; 0xab
    a3c0:	e59f2134 	ldr	r2, [pc, #308]	; a4fc <nrf_get_pkts+0x29c>
    a3c4:	e59f1134 	ldr	r1, [pc, #308]	; a500 <nrf_get_pkts+0x2a0>
    a3c8:	e59f013c 	ldr	r0, [pc, #316]	; a50c <nrf_get_pkts+0x2ac>
    a3cc:	eb000ad1 	bl	cf18 <printk>
    a3d0:	eb000bd9 	bl	d33c <clean_reboot>
    a3d4:	e2855001 	add	r5, r5, #1, 0
    a3d8:	e5d41003 	ldrb	r1, [r4, #3]
    a3dc:	e2843a02 	add	r3, r4, #8192	; 0x2000
    a3e0:	e5932054 	ldr	r2, [r3, #84]	; 0x54
    a3e4:	e0822001 	add	r2, r2, r1
    a3e8:	e5832054 	str	r2, [r3, #84]	; 0x54
    a3ec:	e5932050 	ldr	r2, [r3, #80]	; 0x50
    a3f0:	e2822001 	add	r2, r2, #1, 0
    a3f4:	e5832050 	str	r2, [r3, #80]	; 0x50
    a3f8:	e3a02040 	mov	r2, #64, 0	; 0x40
    a3fc:	e3a01007 	mov	r1, #7, 0
    a400:	e1a00004 	mov	r0, r4
    a404:	ebfff79c 	bl	827c <nrf_put8>
    a408:	e3a02000 	mov	r2, #0, 0
    a40c:	e3a01017 	mov	r1, #23, 0
    a410:	e1a00004 	mov	r0, r4
    a414:	ebfff8a6 	bl	86b4 <nrf_bit_isset>
    a418:	e3500000 	cmp	r0, #0, 0
    a41c:	1a00001a 	bne	a48c <nrf_get_pkts+0x22c>
    a420:	e3a01007 	mov	r1, #7, 0
    a424:	e1a00004 	mov	r0, r4
    a428:	ebfff77e 	bl	8228 <nrf_get8>
    a42c:	e1a000a0 	lsr	r0, r0, #1
    a430:	e2000007 	and	r0, r0, #7, 0
    a434:	e3500007 	cmp	r0, #7, 0
    a438:	0affffa6 	beq	a2d8 <nrf_get_pkts+0x78>
    a43c:	e5d43003 	ldrb	r3, [r4, #3]
    a440:	e1a02006 	mov	r2, r6
    a444:	e3a01061 	mov	r1, #97, 0	; 0x61
    a448:	e1a00004 	mov	r0, r4
    a44c:	ebfff7c1 	bl	8358 <nrf_getn>
    a450:	e2841024 	add	r1, r4, #36, 0	; 0x24
    a454:	e5d40003 	ldrb	r0, [r4, #3]
    a458:	e3500000 	cmp	r0, #0, 0
    a45c:	0affffa5 	beq	a2f8 <nrf_get_pkts+0x98>
    a460:	e2812a02 	add	r2, r1, #8192	; 0x2000
    a464:	e5923004 	ldr	r3, [r2, #4]
    a468:	e5922008 	ldr	r2, [r2, #8]
    a46c:	e0433002 	sub	r3, r3, r2
    a470:	e1e03003 	mvn	r3, r3
    a474:	e1a03983 	lsl	r3, r3, #19
    a478:	e1a039a3 	lsr	r3, r3, #19
    a47c:	e1500003 	cmp	r0, r3
    a480:	8affffd3 	bhi	a3d4 <nrf_get_pkts+0x174>
    a484:	e3a0c000 	mov	ip, #0, 0
    a488:	eaffffae 	b	a348 <nrf_get_pkts+0xe8>
    a48c:	e3a01000 	mov	r1, #0, 0
    a490:	e1a00004 	mov	r0, r4
    a494:	ebfff763 	bl	8228 <nrf_get8>
    a498:	e350007f 	cmp	r0, #127, 0	; 0x7f
    a49c:	1a000002 	bne	a4ac <nrf_get_pkts+0x24c>
    a4a0:	e1a00005 	mov	r0, r5
    a4a4:	e24bd014 	sub	sp, fp, #20, 0
    a4a8:	e8bd88f0 	pop	{r4, r5, r6, r7, fp, pc}
    a4ac:	e1a01004 	mov	r1, r4
    a4b0:	e59f0020 	ldr	r0, [pc, #32]	; a4d8 <nrf_get_pkts+0x278>
    a4b4:	ebfff902 	bl	88c4 <nrf_dump>
    a4b8:	e59f301c 	ldr	r3, [pc, #28]	; a4dc <nrf_get_pkts+0x27c>
    a4bc:	e58d3000 	str	r3, [sp]
    a4c0:	e59f3048 	ldr	r3, [pc, #72]	; a510 <nrf_get_pkts+0x2b0>
    a4c4:	e59f2014 	ldr	r2, [pc, #20]	; a4e0 <nrf_get_pkts+0x280>
    a4c8:	e59f1014 	ldr	r1, [pc, #20]	; a4e4 <nrf_get_pkts+0x284>
    a4cc:	e59f0014 	ldr	r0, [pc, #20]	; a4e8 <nrf_get_pkts+0x288>
    a4d0:	eb000a90 	bl	cf18 <printk>
    a4d4:	eb000b98 	bl	d33c <clean_reboot>
    a4d8:	0000e0ec 	.word	0x0000e0ec
    a4dc:	0000e580 	.word	0x0000e580
    a4e0:	0000e6ac 	.word	0x0000e6ac
    a4e4:	0000e3c8 	.word	0x0000e3c8
    a4e8:	0000e100 	.word	0x0000e100
    a4ec:	0000e5a8 	.word	0x0000e5a8
    a4f0:	00000186 	.word	0x00000186
    a4f4:	0000dbd8 	.word	0x0000dbd8
    a4f8:	0000e5d4 	.word	0x0000e5d4
    a4fc:	0000e6bc 	.word	0x0000e6bc
    a500:	0000e2d4 	.word	0x0000e2d4
    a504:	0000e5d8 	.word	0x0000e5d8
    a508:	0000e6c8 	.word	0x0000e6c8
    a50c:	0000e5ec 	.word	0x0000e5ec
    a510:	0000018f 	.word	0x0000018f

0000a514 <nrf_tx_send_ack>:
    a514:	e92d40f0 	push	{r4, r5, r6, r7, lr}
    a518:	e24dd00c 	sub	sp, sp, #12, 0
    a51c:	e1a04000 	mov	r4, r0
    a520:	e1a05001 	mov	r5, r1
    a524:	e1a07002 	mov	r7, r2
    a528:	e1a06003 	mov	r6, r3
    a52c:	e3a01000 	mov	r1, #0, 0
    a530:	ebfff73c 	bl	8228 <nrf_get8>
    a534:	e350007f 	cmp	r0, #127, 0	; 0x7f
    a538:	1a000043 	bne	a64c <nrf_tx_send_ack+0x138>
    a53c:	e3a01002 	mov	r1, #2, 0
    a540:	e1a00004 	mov	r0, r4
    a544:	ebfff737 	bl	8228 <nrf_get8>
    a548:	e3100001 	tst	r0, #1, 0
    a54c:	0a000049 	beq	a678 <nrf_tx_send_ack+0x164>
    a550:	e3a01002 	mov	r1, #2, 0
    a554:	e1a00004 	mov	r0, r4
    a558:	ebfff732 	bl	8228 <nrf_get8>
    a55c:	e3100002 	tst	r0, #2, 0
    a560:	0a00004f 	beq	a6a4 <nrf_tx_send_ack+0x190>
    a564:	e3a01001 	mov	r1, #1, 0
    a568:	e1a00004 	mov	r0, r4
    a56c:	ebfff72d 	bl	8228 <nrf_get8>
    a570:	e3100001 	tst	r0, #1, 0
    a574:	0a000055 	beq	a6d0 <nrf_tx_send_ack+0x1bc>
    a578:	e3a01001 	mov	r1, #1, 0
    a57c:	e1a00004 	mov	r0, r4
    a580:	ebfff728 	bl	8228 <nrf_get8>
    a584:	e3100002 	tst	r0, #2, 0
    a588:	0a00005b 	beq	a6fc <nrf_tx_send_ack+0x1e8>
    a58c:	e3a02004 	mov	r2, #4, 0
    a590:	e3a01017 	mov	r1, #23, 0
    a594:	e1a00004 	mov	r0, r4
    a598:	ebfff845 	bl	86b4 <nrf_bit_isset>
    a59c:	e3500000 	cmp	r0, #0, 0
    a5a0:	0a000060 	beq	a728 <nrf_tx_send_ack+0x214>
    a5a4:	e1a00004 	mov	r0, r4
    a5a8:	ebffff2c 	bl	a260 <nrf_get_pkts>
    a5ac:	e3500000 	cmp	r0, #0, 0
    a5b0:	1afffffb 	bne	a5a4 <nrf_tx_send_ack+0x90>
    a5b4:	e3a03003 	mov	r3, #3, 0
    a5b8:	e1a02005 	mov	r2, r5
    a5bc:	e3a01010 	mov	r1, #16, 0
    a5c0:	e1a00004 	mov	r0, r4
    a5c4:	ebfffa5d 	bl	8f40 <nrf_set_addr>
    a5c8:	e3a03003 	mov	r3, #3, 0
    a5cc:	e1a02005 	mov	r2, r5
    a5d0:	e3a0100a 	mov	r1, #10, 0
    a5d4:	e1a00004 	mov	r0, r4
    a5d8:	ebfffa58 	bl	8f40 <nrf_set_addr>
    a5dc:	e1a03006 	mov	r3, r6
    a5e0:	e1a02007 	mov	r2, r7
    a5e4:	e3a010a0 	mov	r1, #160, 0	; 0xa0
    a5e8:	e1a00004 	mov	r0, r4
    a5ec:	ebfff78f 	bl	8430 <nrf_putn>
    a5f0:	e1a00004 	mov	r0, r4
    a5f4:	ebfffc0f 	bl	9638 <nrf_tx_mode>
    a5f8:	e3a02005 	mov	r2, #5, 0
    a5fc:	e3a01007 	mov	r1, #7, 0
    a600:	e1a00004 	mov	r0, r4
    a604:	ebfff82a 	bl	86b4 <nrf_bit_isset>
    a608:	e3500000 	cmp	r0, #0, 0
    a60c:	1a000050 	bne	a754 <nrf_tx_send_ack+0x240>
    a610:	e3a02004 	mov	r2, #4, 0
    a614:	e3a01007 	mov	r1, #7, 0
    a618:	e1a00004 	mov	r0, r4
    a61c:	ebfff824 	bl	86b4 <nrf_bit_isset>
    a620:	e3500000 	cmp	r0, #0, 0
    a624:	0afffff3 	beq	a5f8 <nrf_tx_send_ack+0xe4>
    a628:	e1a01004 	mov	r1, r4
    a62c:	e59f0200 	ldr	r0, [pc, #512]	; a834 <nrf_tx_send_ack+0x320>
    a630:	ebfff8a3 	bl	88c4 <nrf_dump>
    a634:	e59f31fc 	ldr	r3, [pc, #508]	; a838 <nrf_tx_send_ack+0x324>
    a638:	e59f21fc 	ldr	r2, [pc, #508]	; a83c <nrf_tx_send_ack+0x328>
    a63c:	e59f11fc 	ldr	r1, [pc, #508]	; a840 <nrf_tx_send_ack+0x32c>
    a640:	e59f01fc 	ldr	r0, [pc, #508]	; a844 <nrf_tx_send_ack+0x330>
    a644:	eb000a33 	bl	cf18 <printk>
    a648:	eb000b3b 	bl	d33c <clean_reboot>
    a64c:	e1a01004 	mov	r1, r4
    a650:	e59f01f0 	ldr	r0, [pc, #496]	; a848 <nrf_tx_send_ack+0x334>
    a654:	ebfff89a 	bl	88c4 <nrf_dump>
    a658:	e59f31ec 	ldr	r3, [pc, #492]	; a84c <nrf_tx_send_ack+0x338>
    a65c:	e58d3000 	str	r3, [sp]
    a660:	e59f31e8 	ldr	r3, [pc, #488]	; a850 <nrf_tx_send_ack+0x33c>
    a664:	e59f21d0 	ldr	r2, [pc, #464]	; a83c <nrf_tx_send_ack+0x328>
    a668:	e59f11d0 	ldr	r1, [pc, #464]	; a840 <nrf_tx_send_ack+0x32c>
    a66c:	e59f01e0 	ldr	r0, [pc, #480]	; a854 <nrf_tx_send_ack+0x340>
    a670:	eb000a28 	bl	cf18 <printk>
    a674:	eb000b30 	bl	d33c <clean_reboot>
    a678:	e1a01004 	mov	r1, r4
    a67c:	e59f01c4 	ldr	r0, [pc, #452]	; a848 <nrf_tx_send_ack+0x334>
    a680:	ebfff88f 	bl	88c4 <nrf_dump>
    a684:	e59f31cc 	ldr	r3, [pc, #460]	; a858 <nrf_tx_send_ack+0x344>
    a688:	e58d3000 	str	r3, [sp]
    a68c:	e59f31c8 	ldr	r3, [pc, #456]	; a85c <nrf_tx_send_ack+0x348>
    a690:	e59f21a4 	ldr	r2, [pc, #420]	; a83c <nrf_tx_send_ack+0x328>
    a694:	e59f11a4 	ldr	r1, [pc, #420]	; a840 <nrf_tx_send_ack+0x32c>
    a698:	e59f01b4 	ldr	r0, [pc, #436]	; a854 <nrf_tx_send_ack+0x340>
    a69c:	eb000a1d 	bl	cf18 <printk>
    a6a0:	eb000b25 	bl	d33c <clean_reboot>
    a6a4:	e1a01004 	mov	r1, r4
    a6a8:	e59f0198 	ldr	r0, [pc, #408]	; a848 <nrf_tx_send_ack+0x334>
    a6ac:	ebfff884 	bl	88c4 <nrf_dump>
    a6b0:	e59f31a8 	ldr	r3, [pc, #424]	; a860 <nrf_tx_send_ack+0x34c>
    a6b4:	e58d3000 	str	r3, [sp]
    a6b8:	e59f31a4 	ldr	r3, [pc, #420]	; a864 <nrf_tx_send_ack+0x350>
    a6bc:	e59f2178 	ldr	r2, [pc, #376]	; a83c <nrf_tx_send_ack+0x328>
    a6c0:	e59f1178 	ldr	r1, [pc, #376]	; a840 <nrf_tx_send_ack+0x32c>
    a6c4:	e59f0188 	ldr	r0, [pc, #392]	; a854 <nrf_tx_send_ack+0x340>
    a6c8:	eb000a12 	bl	cf18 <printk>
    a6cc:	eb000b1a 	bl	d33c <clean_reboot>
    a6d0:	e1a01004 	mov	r1, r4
    a6d4:	e59f016c 	ldr	r0, [pc, #364]	; a848 <nrf_tx_send_ack+0x334>
    a6d8:	ebfff879 	bl	88c4 <nrf_dump>
    a6dc:	e59f3184 	ldr	r3, [pc, #388]	; a868 <nrf_tx_send_ack+0x354>
    a6e0:	e58d3000 	str	r3, [sp]
    a6e4:	e3a03f42 	mov	r3, #264	; 0x108
    a6e8:	e59f214c 	ldr	r2, [pc, #332]	; a83c <nrf_tx_send_ack+0x328>
    a6ec:	e59f114c 	ldr	r1, [pc, #332]	; a840 <nrf_tx_send_ack+0x32c>
    a6f0:	e59f015c 	ldr	r0, [pc, #348]	; a854 <nrf_tx_send_ack+0x340>
    a6f4:	eb000a07 	bl	cf18 <printk>
    a6f8:	eb000b0f 	bl	d33c <clean_reboot>
    a6fc:	e1a01004 	mov	r1, r4
    a700:	e59f0140 	ldr	r0, [pc, #320]	; a848 <nrf_tx_send_ack+0x334>
    a704:	ebfff86e 	bl	88c4 <nrf_dump>
    a708:	e59f315c 	ldr	r3, [pc, #348]	; a86c <nrf_tx_send_ack+0x358>
    a70c:	e58d3000 	str	r3, [sp]
    a710:	e59f3158 	ldr	r3, [pc, #344]	; a870 <nrf_tx_send_ack+0x35c>
    a714:	e59f2120 	ldr	r2, [pc, #288]	; a83c <nrf_tx_send_ack+0x328>
    a718:	e59f1120 	ldr	r1, [pc, #288]	; a840 <nrf_tx_send_ack+0x32c>
    a71c:	e59f0130 	ldr	r0, [pc, #304]	; a854 <nrf_tx_send_ack+0x340>
    a720:	eb0009fc 	bl	cf18 <printk>
    a724:	eb000b04 	bl	d33c <clean_reboot>
    a728:	e1a01004 	mov	r1, r4
    a72c:	e59f0114 	ldr	r0, [pc, #276]	; a848 <nrf_tx_send_ack+0x334>
    a730:	ebfff863 	bl	88c4 <nrf_dump>
    a734:	e59f3138 	ldr	r3, [pc, #312]	; a874 <nrf_tx_send_ack+0x360>
    a738:	e58d3000 	str	r3, [sp]
    a73c:	e59f3134 	ldr	r3, [pc, #308]	; a878 <nrf_tx_send_ack+0x364>
    a740:	e59f20f4 	ldr	r2, [pc, #244]	; a83c <nrf_tx_send_ack+0x328>
    a744:	e59f10f4 	ldr	r1, [pc, #244]	; a840 <nrf_tx_send_ack+0x32c>
    a748:	e59f0104 	ldr	r0, [pc, #260]	; a854 <nrf_tx_send_ack+0x340>
    a74c:	eb0009f1 	bl	cf18 <printk>
    a750:	eb000af9 	bl	d33c <clean_reboot>
    a754:	e3a02004 	mov	r2, #4, 0
    a758:	e3a01017 	mov	r1, #23, 0
    a75c:	e1a00004 	mov	r0, r4
    a760:	ebfff7d3 	bl	86b4 <nrf_bit_isset>
    a764:	e3500000 	cmp	r0, #0, 0
    a768:	0a000013 	beq	a7bc <nrf_tx_send_ack+0x2a8>
    a76c:	e3a02020 	mov	r2, #32, 0
    a770:	e3a01007 	mov	r1, #7, 0
    a774:	e1a00004 	mov	r0, r4
    a778:	ebfff6bf 	bl	827c <nrf_put8>
    a77c:	e1a00004 	mov	r0, r4
    a780:	ebfffb63 	bl	9514 <nrf_rx_mode>
    a784:	e3a02005 	mov	r2, #5, 0
    a788:	e3a01007 	mov	r1, #7, 0
    a78c:	e1a00004 	mov	r0, r4
    a790:	ebfff7c7 	bl	86b4 <nrf_bit_isset>
    a794:	e3500000 	cmp	r0, #0, 0
    a798:	1a00000f 	bne	a7dc <nrf_tx_send_ack+0x2c8>
    a79c:	e3a01000 	mov	r1, #0, 0
    a7a0:	e1a00004 	mov	r0, r4
    a7a4:	ebfff69f 	bl	8228 <nrf_get8>
    a7a8:	e350007f 	cmp	r0, #127, 0	; 0x7f
    a7ac:	1a000015 	bne	a808 <nrf_tx_send_ack+0x2f4>
    a7b0:	e1a00006 	mov	r0, r6
    a7b4:	e28dd00c 	add	sp, sp, #12, 0
    a7b8:	e8bd80f0 	pop	{r4, r5, r6, r7, pc}
    a7bc:	e59f30b0 	ldr	r3, [pc, #176]	; a874 <nrf_tx_send_ack+0x360>
    a7c0:	e58d3000 	str	r3, [sp]
    a7c4:	e3a03f49 	mov	r3, #292	; 0x124
    a7c8:	e59f206c 	ldr	r2, [pc, #108]	; a83c <nrf_tx_send_ack+0x328>
    a7cc:	e59f106c 	ldr	r1, [pc, #108]	; a840 <nrf_tx_send_ack+0x32c>
    a7d0:	e59f00a4 	ldr	r0, [pc, #164]	; a87c <nrf_tx_send_ack+0x368>
    a7d4:	eb0009cf 	bl	cf18 <printk>
    a7d8:	eb000ad7 	bl	d33c <clean_reboot>
    a7dc:	e1a01004 	mov	r1, r4
    a7e0:	e59f0060 	ldr	r0, [pc, #96]	; a848 <nrf_tx_send_ack+0x334>
    a7e4:	ebfff836 	bl	88c4 <nrf_dump>
    a7e8:	e59f3090 	ldr	r3, [pc, #144]	; a880 <nrf_tx_send_ack+0x36c>
    a7ec:	e58d3000 	str	r3, [sp]
    a7f0:	e59f308c 	ldr	r3, [pc, #140]	; a884 <nrf_tx_send_ack+0x370>
    a7f4:	e59f2040 	ldr	r2, [pc, #64]	; a83c <nrf_tx_send_ack+0x328>
    a7f8:	e59f1040 	ldr	r1, [pc, #64]	; a840 <nrf_tx_send_ack+0x32c>
    a7fc:	e59f0050 	ldr	r0, [pc, #80]	; a854 <nrf_tx_send_ack+0x340>
    a800:	eb0009c4 	bl	cf18 <printk>
    a804:	eb000acc 	bl	d33c <clean_reboot>
    a808:	e1a01004 	mov	r1, r4
    a80c:	e59f0034 	ldr	r0, [pc, #52]	; a848 <nrf_tx_send_ack+0x334>
    a810:	ebfff82b 	bl	88c4 <nrf_dump>
    a814:	e59f3030 	ldr	r3, [pc, #48]	; a84c <nrf_tx_send_ack+0x338>
    a818:	e58d3000 	str	r3, [sp]
    a81c:	e3a03e13 	mov	r3, #304	; 0x130
    a820:	e59f2014 	ldr	r2, [pc, #20]	; a83c <nrf_tx_send_ack+0x328>
    a824:	e59f1014 	ldr	r1, [pc, #20]	; a840 <nrf_tx_send_ack+0x32c>
    a828:	e59f0024 	ldr	r0, [pc, #36]	; a854 <nrf_tx_send_ack+0x340>
    a82c:	eb0009b9 	bl	cf18 <printk>
    a830:	eb000ac1 	bl	d33c <clean_reboot>
    a834:	0000e624 	.word	0x0000e624
    a838:	00000121 	.word	0x00000121
    a83c:	0000e6d0 	.word	0x0000e6d0
    a840:	0000e3c8 	.word	0x0000e3c8
    a844:	0000e634 	.word	0x0000e634
    a848:	0000e0ec 	.word	0x0000e0ec
    a84c:	0000e580 	.word	0x0000e580
    a850:	00000105 	.word	0x00000105
    a854:	0000e100 	.word	0x0000e100
    a858:	0000e4e0 	.word	0x0000e4e0
    a85c:	00000106 	.word	0x00000106
    a860:	0000e48c 	.word	0x0000e48c
    a864:	00000107 	.word	0x00000107
    a868:	0000e514 	.word	0x0000e514
    a86c:	0000e4fc 	.word	0x0000e4fc
    a870:	00000109 	.word	0x00000109
    a874:	0000e550 	.word	0x0000e550
    a878:	0000010a 	.word	0x0000010a
    a87c:	0000dbd8 	.word	0x0000dbd8
    a880:	0000e65c 	.word	0x0000e65c
    a884:	0000012e 	.word	0x0000012e

0000a888 <nrf_tx_send_noack>:
    a888:	e92d40f0 	push	{r4, r5, r6, r7, lr}
    a88c:	e24dd00c 	sub	sp, sp, #12, 0
    a890:	e1a04000 	mov	r4, r0
    a894:	e1a07001 	mov	r7, r1
    a898:	e1a06002 	mov	r6, r2
    a89c:	e1a05003 	mov	r5, r3
    a8a0:	e3a01000 	mov	r1, #0, 0
    a8a4:	ebfff65f 	bl	8228 <nrf_get8>
    a8a8:	e350007f 	cmp	r0, #127, 0	; 0x7f
    a8ac:	1a000044 	bne	a9c4 <nrf_tx_send_noack+0x13c>
    a8b0:	e3a01002 	mov	r1, #2, 0
    a8b4:	e1a00004 	mov	r0, r4
    a8b8:	ebfff65a 	bl	8228 <nrf_get8>
    a8bc:	e3100001 	tst	r0, #1, 0
    a8c0:	1a00004a 	bne	a9f0 <nrf_tx_send_noack+0x168>
    a8c4:	e3a01002 	mov	r1, #2, 0
    a8c8:	e1a00004 	mov	r0, r4
    a8cc:	ebfff655 	bl	8228 <nrf_get8>
    a8d0:	e3100002 	tst	r0, #2, 0
    a8d4:	0a000050 	beq	aa1c <nrf_tx_send_noack+0x194>
    a8d8:	e3a01001 	mov	r1, #1, 0
    a8dc:	e1a00004 	mov	r0, r4
    a8e0:	ebfff650 	bl	8228 <nrf_get8>
    a8e4:	e3100002 	tst	r0, #2, 0
    a8e8:	1a000056 	bne	aa48 <nrf_tx_send_noack+0x1c0>
    a8ec:	e3a02004 	mov	r2, #4, 0
    a8f0:	e3a01017 	mov	r1, #23, 0
    a8f4:	e1a00004 	mov	r0, r4
    a8f8:	ebfff76d 	bl	86b4 <nrf_bit_isset>
    a8fc:	e3500000 	cmp	r0, #0, 0
    a900:	0a00005b 	beq	aa74 <nrf_tx_send_noack+0x1ec>
    a904:	e1a00004 	mov	r0, r4
    a908:	ebfffe54 	bl	a260 <nrf_get_pkts>
    a90c:	e3500000 	cmp	r0, #0, 0
    a910:	1afffffb 	bne	a904 <nrf_tx_send_noack+0x7c>
    a914:	e3a03003 	mov	r3, #3, 0
    a918:	e1a02007 	mov	r2, r7
    a91c:	e3a01010 	mov	r1, #16, 0
    a920:	e1a00004 	mov	r0, r4
    a924:	ebfff985 	bl	8f40 <nrf_set_addr>
    a928:	e1a03005 	mov	r3, r5
    a92c:	e1a02006 	mov	r2, r6
    a930:	e3a010a0 	mov	r1, #160, 0	; 0xa0
    a934:	e1a00004 	mov	r0, r4
    a938:	ebfff6bc 	bl	8430 <nrf_putn>
    a93c:	e1a00004 	mov	r0, r4
    a940:	ebfffb3c 	bl	9638 <nrf_tx_mode>
    a944:	e3a02005 	mov	r2, #5, 0
    a948:	e3a01007 	mov	r1, #7, 0
    a94c:	e1a00004 	mov	r0, r4
    a950:	ebfff757 	bl	86b4 <nrf_bit_isset>
    a954:	e3500000 	cmp	r0, #0, 0
    a958:	0afffff9 	beq	a944 <nrf_tx_send_noack+0xbc>
    a95c:	e3a02004 	mov	r2, #4, 0
    a960:	e3a01017 	mov	r1, #23, 0
    a964:	e1a00004 	mov	r0, r4
    a968:	ebfff751 	bl	86b4 <nrf_bit_isset>
    a96c:	e3500000 	cmp	r0, #0, 0
    a970:	0a00004a 	beq	aaa0 <nrf_tx_send_noack+0x218>
    a974:	e3a02020 	mov	r2, #32, 0
    a978:	e3a01007 	mov	r1, #7, 0
    a97c:	e1a00004 	mov	r0, r4
    a980:	ebfff63d 	bl	827c <nrf_put8>
    a984:	e1a00004 	mov	r0, r4
    a988:	ebfffae1 	bl	9514 <nrf_rx_mode>
    a98c:	e3a02005 	mov	r2, #5, 0
    a990:	e3a01007 	mov	r1, #7, 0
    a994:	e1a00004 	mov	r0, r4
    a998:	ebfff745 	bl	86b4 <nrf_bit_isset>
    a99c:	e3500000 	cmp	r0, #0, 0
    a9a0:	1a000046 	bne	aac0 <nrf_tx_send_noack+0x238>
    a9a4:	e3a01000 	mov	r1, #0, 0
    a9a8:	e1a00004 	mov	r0, r4
    a9ac:	ebfff61d 	bl	8228 <nrf_get8>
    a9b0:	e350007f 	cmp	r0, #127, 0	; 0x7f
    a9b4:	1a00004c 	bne	aaec <nrf_tx_send_noack+0x264>
    a9b8:	e1a00005 	mov	r0, r5
    a9bc:	e28dd00c 	add	sp, sp, #12, 0
    a9c0:	e8bd80f0 	pop	{r4, r5, r6, r7, pc}
    a9c4:	e1a01004 	mov	r1, r4
    a9c8:	e59f0148 	ldr	r0, [pc, #328]	; ab18 <nrf_tx_send_noack+0x290>
    a9cc:	ebfff7bc 	bl	88c4 <nrf_dump>
    a9d0:	e59f3144 	ldr	r3, [pc, #324]	; ab1c <nrf_tx_send_noack+0x294>
    a9d4:	e58d3000 	str	r3, [sp]
    a9d8:	e59f3140 	ldr	r3, [pc, #320]	; ab20 <nrf_tx_send_noack+0x298>
    a9dc:	e59f2140 	ldr	r2, [pc, #320]	; ab24 <nrf_tx_send_noack+0x29c>
    a9e0:	e59f1140 	ldr	r1, [pc, #320]	; ab28 <nrf_tx_send_noack+0x2a0>
    a9e4:	e59f0140 	ldr	r0, [pc, #320]	; ab2c <nrf_tx_send_noack+0x2a4>
    a9e8:	eb00094a 	bl	cf18 <printk>
    a9ec:	eb000a52 	bl	d33c <clean_reboot>
    a9f0:	e1a01004 	mov	r1, r4
    a9f4:	e59f011c 	ldr	r0, [pc, #284]	; ab18 <nrf_tx_send_noack+0x290>
    a9f8:	ebfff7b1 	bl	88c4 <nrf_dump>
    a9fc:	e59f312c 	ldr	r3, [pc, #300]	; ab30 <nrf_tx_send_noack+0x2a8>
    aa00:	e58d3000 	str	r3, [sp]
    aa04:	e59f3128 	ldr	r3, [pc, #296]	; ab34 <nrf_tx_send_noack+0x2ac>
    aa08:	e59f2114 	ldr	r2, [pc, #276]	; ab24 <nrf_tx_send_noack+0x29c>
    aa0c:	e59f1114 	ldr	r1, [pc, #276]	; ab28 <nrf_tx_send_noack+0x2a0>
    aa10:	e59f0114 	ldr	r0, [pc, #276]	; ab2c <nrf_tx_send_noack+0x2a4>
    aa14:	eb00093f 	bl	cf18 <printk>
    aa18:	eb000a47 	bl	d33c <clean_reboot>
    aa1c:	e1a01004 	mov	r1, r4
    aa20:	e59f00f0 	ldr	r0, [pc, #240]	; ab18 <nrf_tx_send_noack+0x290>
    aa24:	ebfff7a6 	bl	88c4 <nrf_dump>
    aa28:	e59f3108 	ldr	r3, [pc, #264]	; ab38 <nrf_tx_send_noack+0x2b0>
    aa2c:	e58d3000 	str	r3, [sp]
    aa30:	e3a03f4f 	mov	r3, #316	; 0x13c
    aa34:	e59f20e8 	ldr	r2, [pc, #232]	; ab24 <nrf_tx_send_noack+0x29c>
    aa38:	e59f10e8 	ldr	r1, [pc, #232]	; ab28 <nrf_tx_send_noack+0x2a0>
    aa3c:	e59f00e8 	ldr	r0, [pc, #232]	; ab2c <nrf_tx_send_noack+0x2a4>
    aa40:	eb000934 	bl	cf18 <printk>
    aa44:	eb000a3c 	bl	d33c <clean_reboot>
    aa48:	e1a01004 	mov	r1, r4
    aa4c:	e59f00c4 	ldr	r0, [pc, #196]	; ab18 <nrf_tx_send_noack+0x290>
    aa50:	ebfff79b 	bl	88c4 <nrf_dump>
    aa54:	e59f30e0 	ldr	r3, [pc, #224]	; ab3c <nrf_tx_send_noack+0x2b4>
    aa58:	e58d3000 	str	r3, [sp]
    aa5c:	e59f30dc 	ldr	r3, [pc, #220]	; ab40 <nrf_tx_send_noack+0x2b8>
    aa60:	e59f20bc 	ldr	r2, [pc, #188]	; ab24 <nrf_tx_send_noack+0x29c>
    aa64:	e59f10bc 	ldr	r1, [pc, #188]	; ab28 <nrf_tx_send_noack+0x2a0>
    aa68:	e59f00bc 	ldr	r0, [pc, #188]	; ab2c <nrf_tx_send_noack+0x2a4>
    aa6c:	eb000929 	bl	cf18 <printk>
    aa70:	eb000a31 	bl	d33c <clean_reboot>
    aa74:	e1a01004 	mov	r1, r4
    aa78:	e59f0098 	ldr	r0, [pc, #152]	; ab18 <nrf_tx_send_noack+0x290>
    aa7c:	ebfff790 	bl	88c4 <nrf_dump>
    aa80:	e59f30bc 	ldr	r3, [pc, #188]	; ab44 <nrf_tx_send_noack+0x2bc>
    aa84:	e58d3000 	str	r3, [sp]
    aa88:	e59f30b8 	ldr	r3, [pc, #184]	; ab48 <nrf_tx_send_noack+0x2c0>
    aa8c:	e59f2090 	ldr	r2, [pc, #144]	; ab24 <nrf_tx_send_noack+0x29c>
    aa90:	e59f1090 	ldr	r1, [pc, #144]	; ab28 <nrf_tx_send_noack+0x2a0>
    aa94:	e59f0090 	ldr	r0, [pc, #144]	; ab2c <nrf_tx_send_noack+0x2a4>
    aa98:	eb00091e 	bl	cf18 <printk>
    aa9c:	eb000a26 	bl	d33c <clean_reboot>
    aaa0:	e59f309c 	ldr	r3, [pc, #156]	; ab44 <nrf_tx_send_noack+0x2bc>
    aaa4:	e58d3000 	str	r3, [sp]
    aaa8:	e59f309c 	ldr	r3, [pc, #156]	; ab4c <nrf_tx_send_noack+0x2c4>
    aaac:	e59f2070 	ldr	r2, [pc, #112]	; ab24 <nrf_tx_send_noack+0x29c>
    aab0:	e59f1070 	ldr	r1, [pc, #112]	; ab28 <nrf_tx_send_noack+0x2a0>
    aab4:	e59f0094 	ldr	r0, [pc, #148]	; ab50 <nrf_tx_send_noack+0x2c8>
    aab8:	eb000916 	bl	cf18 <printk>
    aabc:	eb000a1e 	bl	d33c <clean_reboot>
    aac0:	e1a01004 	mov	r1, r4
    aac4:	e59f004c 	ldr	r0, [pc, #76]	; ab18 <nrf_tx_send_noack+0x290>
    aac8:	ebfff77d 	bl	88c4 <nrf_dump>
    aacc:	e59f3080 	ldr	r3, [pc, #128]	; ab54 <nrf_tx_send_noack+0x2cc>
    aad0:	e58d3000 	str	r3, [sp]
    aad4:	e59f307c 	ldr	r3, [pc, #124]	; ab58 <nrf_tx_send_noack+0x2d0>
    aad8:	e59f2044 	ldr	r2, [pc, #68]	; ab24 <nrf_tx_send_noack+0x29c>
    aadc:	e59f1044 	ldr	r1, [pc, #68]	; ab28 <nrf_tx_send_noack+0x2a0>
    aae0:	e59f0044 	ldr	r0, [pc, #68]	; ab2c <nrf_tx_send_noack+0x2a4>
    aae4:	eb00090b 	bl	cf18 <printk>
    aae8:	eb000a13 	bl	d33c <clean_reboot>
    aaec:	e1a01004 	mov	r1, r4
    aaf0:	e59f0020 	ldr	r0, [pc, #32]	; ab18 <nrf_tx_send_noack+0x290>
    aaf4:	ebfff772 	bl	88c4 <nrf_dump>
    aaf8:	e59f301c 	ldr	r3, [pc, #28]	; ab1c <nrf_tx_send_noack+0x294>
    aafc:	e58d3000 	str	r3, [sp]
    ab00:	e59f3054 	ldr	r3, [pc, #84]	; ab5c <nrf_tx_send_noack+0x2d4>
    ab04:	e59f2018 	ldr	r2, [pc, #24]	; ab24 <nrf_tx_send_noack+0x29c>
    ab08:	e59f1018 	ldr	r1, [pc, #24]	; ab28 <nrf_tx_send_noack+0x2a0>
    ab0c:	e59f0018 	ldr	r0, [pc, #24]	; ab2c <nrf_tx_send_noack+0x2a4>
    ab10:	eb000900 	bl	cf18 <printk>
    ab14:	eb000a08 	bl	d33c <clean_reboot>
    ab18:	0000e0ec 	.word	0x0000e0ec
    ab1c:	0000e580 	.word	0x0000e580
    ab20:	0000013a 	.word	0x0000013a
    ab24:	0000e6e0 	.word	0x0000e6e0
    ab28:	0000e3c8 	.word	0x0000e3c8
    ab2c:	0000e100 	.word	0x0000e100
    ab30:	0000e4c4 	.word	0x0000e4c4
    ab34:	0000013b 	.word	0x0000013b
    ab38:	0000e48c 	.word	0x0000e48c
    ab3c:	0000e4a8 	.word	0x0000e4a8
    ab40:	0000013d 	.word	0x0000013d
    ab44:	0000e550 	.word	0x0000e550
    ab48:	0000013e 	.word	0x0000013e
    ab4c:	00000155 	.word	0x00000155
    ab50:	0000dbd8 	.word	0x0000dbd8
    ab54:	0000e65c 	.word	0x0000e65c
    ab58:	0000015b 	.word	0x0000015b
    ab5c:	0000015d 	.word	0x0000015d

0000ab60 <new_cs>:
    ab60:	e3a00000 	mov	r0, #0, 0
    ab64:	e12fff1e 	bx	lr

0000ab68 <read_cs>:
    ab68:	e92d4010 	push	{r4, lr}
    ab6c:	ebfff52e 	bl	802c <GET32>
    ab70:	e8bd8010 	pop	{r4, pc}

0000ab74 <start_transfer>:
    ab74:	e24dd010 	sub	sp, sp, #16, 0
    ab78:	e92d4010 	push	{r4, lr}
    ab7c:	e24dd008 	sub	sp, sp, #8, 0
    ab80:	e28dc00c 	add	ip, sp, #12, 0
    ab84:	e98c000f 	stmib	ip, {r0, r1, r2, r3}
    ab88:	eb000a25 	bl	d424 <dev_barrier>
    ab8c:	e59f306c 	ldr	r3, [pc, #108]	; ac00 <start_transfer+0x8c>
    ab90:	e5933000 	ldr	r3, [r3]
    ab94:	e3530000 	cmp	r3, #0, 0
    ab98:	1a000010 	bne	abe0 <start_transfer+0x6c>
    ab9c:	e59f4060 	ldr	r4, [pc, #96]	; ac04 <start_transfer+0x90>
    aba0:	e1a00004 	mov	r0, r4
    aba4:	ebffffef 	bl	ab68 <read_cs>
    aba8:	e38000b0 	orr	r0, r0, #176, 0	; 0xb0
    abac:	e59d1010 	ldr	r1, [sp, #16]
    abb0:	e2011003 	and	r1, r1, #3, 0
    abb4:	e3c00003 	bic	r0, r0, #3, 0
    abb8:	e1811000 	orr	r1, r1, r0
    abbc:	e1a00004 	mov	r0, r4
    abc0:	ebfff517 	bl	8024 <PUT32>
    abc4:	eb000a16 	bl	d424 <dev_barrier>
    abc8:	e3a00003 	mov	r0, #3, 0
    abcc:	eb000a0e 	bl	d40c <delay_cycles>
    abd0:	e28dd008 	add	sp, sp, #8, 0
    abd4:	e8bd4010 	pop	{r4, lr}
    abd8:	e28dd010 	add	sp, sp, #16, 0
    abdc:	e12fff1e 	bx	lr
    abe0:	e59d3010 	ldr	r3, [sp, #16]
    abe4:	e58d3000 	str	r3, [sp]
    abe8:	e3a030f5 	mov	r3, #245, 0	; 0xf5
    abec:	e59f2014 	ldr	r2, [pc, #20]	; ac08 <start_transfer+0x94>
    abf0:	e59f1014 	ldr	r1, [pc, #20]	; ac0c <start_transfer+0x98>
    abf4:	e59f0014 	ldr	r0, [pc, #20]	; ac10 <start_transfer+0x9c>
    abf8:	eb0008c6 	bl	cf18 <printk>
    abfc:	eaffffe6 	b	ab9c <start_transfer+0x28>
    ac00:	0000f100 	.word	0x0000f100
    ac04:	20204000 	.word	0x20204000
    ac08:	0000e8b4 	.word	0x0000e8b4
    ac0c:	0000e6f4 	.word	0x0000e6f4
    ac10:	0000e700 	.word	0x0000e700

0000ac14 <end_transfer>:
    ac14:	e24dd010 	sub	sp, sp, #16, 0
    ac18:	e52de004 	push	{lr}		; (str lr, [sp, #-4]!)
    ac1c:	e24dd00c 	sub	sp, sp, #12, 0
    ac20:	e28dc00c 	add	ip, sp, #12, 0
    ac24:	e98c000f 	stmib	ip, {r0, r1, r2, r3}
    ac28:	e59f30c4 	ldr	r3, [pc, #196]	; acf4 <end_transfer+0xe0>
    ac2c:	e5933000 	ldr	r3, [r3]
    ac30:	e3530000 	cmp	r3, #0, 0
    ac34:	1a000017 	bne	ac98 <end_transfer+0x84>
    ac38:	e59f30b8 	ldr	r3, [pc, #184]	; acf8 <end_transfer+0xe4>
    ac3c:	e5933000 	ldr	r3, [r3]
    ac40:	e3130801 	tst	r3, #65536	; 0x10000
    ac44:	0afffffb 	beq	ac38 <end_transfer+0x24>
    ac48:	e59f30a4 	ldr	r3, [pc, #164]	; acf4 <end_transfer+0xe0>
    ac4c:	e5933000 	ldr	r3, [r3]
    ac50:	e3530000 	cmp	r3, #0, 0
    ac54:	1a000016 	bne	acb4 <end_transfer+0xa0>
    ac58:	e59f0098 	ldr	r0, [pc, #152]	; acf8 <end_transfer+0xe4>
    ac5c:	ebffffc1 	bl	ab68 <read_cs>
    ac60:	e3c01080 	bic	r1, r0, #128, 0	; 0x80
    ac64:	e2000003 	and	r0, r0, #3, 0
    ac68:	e59d3010 	ldr	r3, [sp, #16]
    ac6c:	e1500003 	cmp	r0, r3
    ac70:	1a000017 	bne	acd4 <end_transfer+0xc0>
    ac74:	e59f007c 	ldr	r0, [pc, #124]	; acf8 <end_transfer+0xe4>
    ac78:	ebfff4e9 	bl	8024 <PUT32>
    ac7c:	eb0009e8 	bl	d424 <dev_barrier>
    ac80:	e3a00003 	mov	r0, #3, 0
    ac84:	eb0009e0 	bl	d40c <delay_cycles>
    ac88:	e28dd00c 	add	sp, sp, #12, 0
    ac8c:	e49de004 	pop	{lr}		; (ldr lr, [sp], #4)
    ac90:	e28dd010 	add	sp, sp, #16, 0
    ac94:	e12fff1e 	bx	lr
    ac98:	e58d0000 	str	r0, [sp]
    ac9c:	e59f3058 	ldr	r3, [pc, #88]	; acfc <end_transfer+0xe8>
    aca0:	e59f2058 	ldr	r2, [pc, #88]	; ad00 <end_transfer+0xec>
    aca4:	e59f1058 	ldr	r1, [pc, #88]	; ad04 <end_transfer+0xf0>
    aca8:	e59f0058 	ldr	r0, [pc, #88]	; ad08 <end_transfer+0xf4>
    acac:	eb000899 	bl	cf18 <printk>
    acb0:	eaffffe0 	b	ac38 <end_transfer+0x24>
    acb4:	e59d3010 	ldr	r3, [sp, #16]
    acb8:	e58d3000 	str	r3, [sp]
    acbc:	e3a03f47 	mov	r3, #284	; 0x11c
    acc0:	e59f2038 	ldr	r2, [pc, #56]	; ad00 <end_transfer+0xec>
    acc4:	e59f1038 	ldr	r1, [pc, #56]	; ad04 <end_transfer+0xf0>
    acc8:	e59f003c 	ldr	r0, [pc, #60]	; ad0c <end_transfer+0xf8>
    accc:	eb000891 	bl	cf18 <printk>
    acd0:	eaffffe0 	b	ac58 <end_transfer+0x44>
    acd4:	e58d3004 	str	r3, [sp, #4]
    acd8:	e58d0000 	str	r0, [sp]
    acdc:	e59f302c 	ldr	r3, [pc, #44]	; ad10 <end_transfer+0xfc>
    ace0:	e59f2018 	ldr	r2, [pc, #24]	; ad00 <end_transfer+0xec>
    ace4:	e59f1018 	ldr	r1, [pc, #24]	; ad04 <end_transfer+0xf0>
    ace8:	e59f0024 	ldr	r0, [pc, #36]	; ad14 <end_transfer+0x100>
    acec:	eb000889 	bl	cf18 <printk>
    acf0:	eb000991 	bl	d33c <clean_reboot>
    acf4:	0000f100 	.word	0x0000f100
    acf8:	20204000 	.word	0x20204000
    acfc:	00000119 	.word	0x00000119
    ad00:	0000e8c4 	.word	0x0000e8c4
    ad04:	0000e6f4 	.word	0x0000e6f4
    ad08:	0000e724 	.word	0x0000e724
    ad0c:	0000e754 	.word	0x0000e754
    ad10:	00000122 	.word	0x00000122
    ad14:	0000e774 	.word	0x0000e774

0000ad18 <move_data>:
    ad18:	e92d41f0 	push	{r4, r5, r6, r7, r8, lr}
    ad1c:	e24dd010 	sub	sp, sp, #16, 0
    ad20:	e1a08000 	mov	r8, r0
    ad24:	e1a06001 	mov	r6, r1
    ad28:	e1a05002 	mov	r5, r2
    ad2c:	e3520010 	cmp	r2, #16, 0
    ad30:	31a07002 	movcc	r7, r2
    ad34:	23a07010 	movcs	r7, #16, 0
    ad38:	e3a04000 	mov	r4, #0, 0
    ad3c:	ea000003 	b	ad50 <move_data+0x38>
    ad40:	e7d61004 	ldrb	r1, [r6, r4]
    ad44:	e59f00c4 	ldr	r0, [pc, #196]	; ae10 <move_data+0xf8>
    ad48:	ebfff4b5 	bl	8024 <PUT32>
    ad4c:	e2844001 	add	r4, r4, #1, 0
    ad50:	e1540007 	cmp	r4, r7
    ad54:	3afffff9 	bcc	ad40 <move_data+0x28>
    ad58:	e3a07000 	mov	r7, #0, 0
    ad5c:	ea00000d 	b	ad98 <move_data+0x80>
    ad60:	e7d61004 	ldrb	r1, [r6, r4]
    ad64:	e59f00a4 	ldr	r0, [pc, #164]	; ae10 <move_data+0xf8>
    ad68:	ebfff4ad 	bl	8024 <PUT32>
    ad6c:	e2844001 	add	r4, r4, #1, 0
    ad70:	e1540005 	cmp	r4, r5
    ad74:	2a000003 	bcs	ad88 <move_data+0x70>
    ad78:	e59f3094 	ldr	r3, [pc, #148]	; ae14 <move_data+0xfc>
    ad7c:	e5933000 	ldr	r3, [r3]
    ad80:	e3130701 	tst	r3, #262144	; 0x40000
    ad84:	1afffff5 	bne	ad60 <move_data+0x48>
    ad88:	e59f3084 	ldr	r3, [pc, #132]	; ae14 <move_data+0xfc>
    ad8c:	e5933000 	ldr	r3, [r3]
    ad90:	e3130802 	tst	r3, #131072	; 0x20000
    ad94:	1a000007 	bne	adb8 <move_data+0xa0>
    ad98:	e1570005 	cmp	r7, r5
    ad9c:	3afffff3 	bcc	ad70 <move_data+0x58>
    ada0:	e1540005 	cmp	r4, r5
    ada4:	1a000008 	bne	adcc <move_data+0xb4>
    ada8:	e1570005 	cmp	r7, r5
    adac:	1a00000f 	bne	adf0 <move_data+0xd8>
    adb0:	e28dd010 	add	sp, sp, #16, 0
    adb4:	e8bd81f0 	pop	{r4, r5, r6, r7, r8, pc}
    adb8:	e59f0050 	ldr	r0, [pc, #80]	; ae10 <move_data+0xf8>
    adbc:	ebfff49a 	bl	802c <GET32>
    adc0:	e7c80007 	strb	r0, [r8, r7]
    adc4:	e2877001 	add	r7, r7, #1, 0
    adc8:	eafffff2 	b	ad98 <move_data+0x80>
    adcc:	e58d5008 	str	r5, [sp, #8]
    add0:	e58d7004 	str	r7, [sp, #4]
    add4:	e58d4000 	str	r4, [sp]
    add8:	e59f3038 	ldr	r3, [pc, #56]	; ae18 <move_data+0x100>
    addc:	e59f2038 	ldr	r2, [pc, #56]	; ae1c <move_data+0x104>
    ade0:	e59f1038 	ldr	r1, [pc, #56]	; ae20 <move_data+0x108>
    ade4:	e59f0038 	ldr	r0, [pc, #56]	; ae24 <move_data+0x10c>
    ade8:	eb00084a 	bl	cf18 <printk>
    adec:	eb000952 	bl	d33c <clean_reboot>
    adf0:	e59f3030 	ldr	r3, [pc, #48]	; ae28 <move_data+0x110>
    adf4:	e58d3000 	str	r3, [sp]
    adf8:	e3a03e1a 	mov	r3, #416	; 0x1a0
    adfc:	e59f2018 	ldr	r2, [pc, #24]	; ae1c <move_data+0x104>
    ae00:	e59f1018 	ldr	r1, [pc, #24]	; ae20 <move_data+0x108>
    ae04:	e59f0020 	ldr	r0, [pc, #32]	; ae2c <move_data+0x114>
    ae08:	eb000842 	bl	cf18 <printk>
    ae0c:	eb00094a 	bl	d33c <clean_reboot>
    ae10:	20204004 	.word	0x20204004
    ae14:	20204000 	.word	0x20204000
    ae18:	0000019e 	.word	0x0000019e
    ae1c:	0000e8d4 	.word	0x0000e8d4
    ae20:	0000e6f4 	.word	0x0000e6f4
    ae24:	0000e7ac 	.word	0x0000e7ac
    ae28:	0000e7dc 	.word	0x0000e7dc
    ae2c:	0000dbd8 	.word	0x0000dbd8

0000ae30 <spi_set_verbose>:
    ae30:	e59f3004 	ldr	r3, [pc, #4]	; ae3c <spi_set_verbose+0xc>
    ae34:	e5830000 	str	r0, [r3]
    ae38:	e12fff1e 	bx	lr
    ae3c:	0000f100 	.word	0x0000f100

0000ae40 <spi_n_transfer>:
    ae40:	e24dd010 	sub	sp, sp, #16, 0
    ae44:	e92d4070 	push	{r4, r5, r6, lr}
    ae48:	e24dd010 	sub	sp, sp, #16, 0
    ae4c:	e28dc01c 	add	ip, sp, #28, 0
    ae50:	e98c000f 	stmib	ip, {r0, r1, r2, r3}
    ae54:	e59d6040 	ldr	r6, [sp, #64]	; 0x40
    ae58:	e3560000 	cmp	r6, #0, 0
    ae5c:	0a000013 	beq	aeb0 <spi_n_transfer+0x70>
    ae60:	e58d6008 	str	r6, [sp, #8]
    ae64:	e28d5030 	add	r5, sp, #48, 0	; 0x30
    ae68:	e8950003 	ldm	r5, {r0, r1}
    ae6c:	e88d0003 	stm	sp, {r0, r1}
    ae70:	e28d4020 	add	r4, sp, #32, 0
    ae74:	e894000f 	ldm	r4, {r0, r1, r2, r3}
    ae78:	ebffff3d 	bl	ab74 <start_transfer>
    ae7c:	e1a02006 	mov	r2, r6
    ae80:	e59d103c 	ldr	r1, [sp, #60]	; 0x3c
    ae84:	e59d0038 	ldr	r0, [sp, #56]	; 0x38
    ae88:	ebffffa2 	bl	ad18 <move_data>
    ae8c:	e8950003 	ldm	r5, {r0, r1}
    ae90:	e88d0003 	stm	sp, {r0, r1}
    ae94:	e894000f 	ldm	r4, {r0, r1, r2, r3}
    ae98:	ebffff5d 	bl	ac14 <end_transfer>
    ae9c:	e3a00001 	mov	r0, #1, 0
    aea0:	e28dd010 	add	sp, sp, #16, 0
    aea4:	e8bd4070 	pop	{r4, r5, r6, lr}
    aea8:	e28dd010 	add	sp, sp, #16, 0
    aeac:	e12fff1e 	bx	lr
    aeb0:	e59f3018 	ldr	r3, [pc, #24]	; aed0 <spi_n_transfer+0x90>
    aeb4:	e58d3000 	str	r3, [sp]
    aeb8:	e59f3014 	ldr	r3, [pc, #20]	; aed4 <spi_n_transfer+0x94>
    aebc:	e59f2014 	ldr	r2, [pc, #20]	; aed8 <spi_n_transfer+0x98>
    aec0:	e59f1014 	ldr	r1, [pc, #20]	; aedc <spi_n_transfer+0x9c>
    aec4:	e59f0014 	ldr	r0, [pc, #20]	; aee0 <spi_n_transfer+0xa0>
    aec8:	eb000812 	bl	cf18 <printk>
    aecc:	eb00091a 	bl	d33c <clean_reboot>
    aed0:	0000e7e4 	.word	0x0000e7e4
    aed4:	000001c3 	.word	0x000001c3
    aed8:	0000e8e0 	.word	0x0000e8e0
    aedc:	0000e6f4 	.word	0x0000e6f4
    aee0:	0000dbd8 	.word	0x0000dbd8

0000aee4 <spi_n_init>:
    aee4:	e92d40f0 	push	{r4, r5, r6, r7, lr}
    aee8:	e24dd014 	sub	sp, sp, #20, 0
    aeec:	e1a04000 	mov	r4, r0
    aef0:	e1a05001 	mov	r5, r1
    aef4:	e1a06002 	mov	r6, r2
    aef8:	e59f3168 	ldr	r3, [pc, #360]	; b068 <spi_n_init+0x184>
    aefc:	e5933004 	ldr	r3, [r3, #4]
    af00:	e3530000 	cmp	r3, #0, 0
    af04:	1a00002b 	bne	afb8 <spi_n_init+0xd4>
    af08:	e59f3158 	ldr	r3, [pc, #344]	; b068 <spi_n_init+0x184>
    af0c:	e5832004 	str	r2, [r3, #4]
    af10:	eb000943 	bl	d424 <dev_barrier>
    af14:	e3550000 	cmp	r5, #0, 0
    af18:	0a000030 	beq	afe0 <spi_n_init+0xfc>
    af1c:	e3550001 	cmp	r5, #1, 0
    af20:	1a000032 	bne	aff0 <spi_n_init+0x10c>
    af24:	e3a01004 	mov	r1, #4, 0
    af28:	e3a00007 	mov	r0, #7, 0
    af2c:	eb00073e 	bl	cc2c <gpio_set_function>
    af30:	e59f3130 	ldr	r3, [pc, #304]	; b068 <spi_n_init+0x184>
    af34:	e5933008 	ldr	r3, [r3, #8]
    af38:	e3530000 	cmp	r3, #0, 0
    af3c:	0a000032 	beq	b00c <spi_n_init+0x128>
    af40:	eb000937 	bl	d424 <dev_barrier>
    af44:	ebffff05 	bl	ab60 <new_cs>
    af48:	e2051003 	and	r1, r5, #3, 0
    af4c:	e3c00003 	bic	r0, r0, #3, 0
    af50:	e1811000 	orr	r1, r1, r0
    af54:	e59f7110 	ldr	r7, [pc, #272]	; b06c <spi_n_init+0x188>
    af58:	e3811030 	orr	r1, r1, #48, 0	; 0x30
    af5c:	e1a00007 	mov	r0, r7
    af60:	ebfff42f 	bl	8024 <PUT32>
    af64:	eb00092e 	bl	d424 <dev_barrier>
    af68:	e1a00007 	mov	r0, r7
    af6c:	ebfffefd 	bl	ab68 <read_cs>
    af70:	e2000003 	and	r0, r0, #3, 0
    af74:	e1500005 	cmp	r0, r5
    af78:	1a000030 	bne	b040 <spi_n_init+0x15c>
    af7c:	e1a01006 	mov	r1, r6
    af80:	e59f00e8 	ldr	r0, [pc, #232]	; b070 <spi_n_init+0x18c>
    af84:	ebfff426 	bl	8024 <PUT32>
    af88:	eb000925 	bl	d424 <dev_barrier>
    af8c:	e3a03000 	mov	r3, #0, 0
    af90:	e5843000 	str	r3, [r4]
    af94:	e5843004 	str	r3, [r4, #4]
    af98:	e5843008 	str	r3, [r4, #8]
    af9c:	e584300c 	str	r3, [r4, #12]
    afa0:	e5843010 	str	r3, [r4, #16]
    afa4:	e5843014 	str	r3, [r4, #20]
    afa8:	e5845000 	str	r5, [r4]
    afac:	e1a00004 	mov	r0, r4
    afb0:	e28dd014 	add	sp, sp, #20, 0
    afb4:	e8bd80f0 	pop	{r4, r5, r6, r7, pc}
    afb8:	e1530002 	cmp	r3, r2
    afbc:	0affffd3 	beq	af10 <spi_n_init+0x2c>
    afc0:	e58d2004 	str	r2, [sp, #4]
    afc4:	e58d3000 	str	r3, [sp]
    afc8:	e59f30a4 	ldr	r3, [pc, #164]	; b074 <spi_n_init+0x190>
    afcc:	e59f20a4 	ldr	r2, [pc, #164]	; b078 <spi_n_init+0x194>
    afd0:	e59f10a4 	ldr	r1, [pc, #164]	; b07c <spi_n_init+0x198>
    afd4:	e59f00a4 	ldr	r0, [pc, #164]	; b080 <spi_n_init+0x19c>
    afd8:	eb0007ce 	bl	cf18 <printk>
    afdc:	eb0008d6 	bl	d33c <clean_reboot>
    afe0:	e3a01004 	mov	r1, #4, 0
    afe4:	e3a00008 	mov	r0, #8, 0
    afe8:	eb00070f 	bl	cc2c <gpio_set_function>
    afec:	eaffffcf 	b	af30 <spi_n_init+0x4c>
    aff0:	e58d5000 	str	r5, [sp]
    aff4:	e59f3088 	ldr	r3, [pc, #136]	; b084 <spi_n_init+0x1a0>
    aff8:	e59f2078 	ldr	r2, [pc, #120]	; b078 <spi_n_init+0x194>
    affc:	e59f1078 	ldr	r1, [pc, #120]	; b07c <spi_n_init+0x198>
    b000:	e59f0080 	ldr	r0, [pc, #128]	; b088 <spi_n_init+0x1a4>
    b004:	eb0007c3 	bl	cf18 <printk>
    b008:	eb0008cb 	bl	d33c <clean_reboot>
    b00c:	e59f3054 	ldr	r3, [pc, #84]	; b068 <spi_n_init+0x184>
    b010:	e3a02001 	mov	r2, #1, 0
    b014:	e5832008 	str	r2, [r3, #8]
    b018:	e3a01004 	mov	r1, #4, 0
    b01c:	e3a00009 	mov	r0, #9, 0
    b020:	eb000701 	bl	cc2c <gpio_set_function>
    b024:	e3a01004 	mov	r1, #4, 0
    b028:	e3a0000a 	mov	r0, #10, 0
    b02c:	eb0006fe 	bl	cc2c <gpio_set_function>
    b030:	e3a01004 	mov	r1, #4, 0
    b034:	e3a0000b 	mov	r0, #11, 0
    b038:	eb0006fb 	bl	cc2c <gpio_set_function>
    b03c:	eaffffbf 	b	af40 <spi_n_init+0x5c>
    b040:	e58d0008 	str	r0, [sp, #8]
    b044:	e58d5004 	str	r5, [sp, #4]
    b048:	e59f303c 	ldr	r3, [pc, #60]	; b08c <spi_n_init+0x1a8>
    b04c:	e58d3000 	str	r3, [sp]
    b050:	e3a03f8e 	mov	r3, #568	; 0x238
    b054:	e59f201c 	ldr	r2, [pc, #28]	; b078 <spi_n_init+0x194>
    b058:	e59f101c 	ldr	r1, [pc, #28]	; b07c <spi_n_init+0x198>
    b05c:	e59f002c 	ldr	r0, [pc, #44]	; b090 <spi_n_init+0x1ac>
    b060:	eb0007ac 	bl	cf18 <printk>
    b064:	eb0008b4 	bl	d33c <clean_reboot>
    b068:	0000f100 	.word	0x0000f100
    b06c:	20204000 	.word	0x20204000
    b070:	20204008 	.word	0x20204008
    b074:	00000213 	.word	0x00000213
    b078:	0000e8f0 	.word	0x0000e8f0
    b07c:	0000e6f4 	.word	0x0000e6f4
    b080:	0000e7ec 	.word	0x0000e7ec
    b084:	00000222 	.word	0x00000222
    b088:	0000e83c 	.word	0x0000e83c
    b08c:	0000e8a4 	.word	0x0000e8a4
    b090:	0000e864 	.word	0x0000e864

0000b094 <nrf_rx_has_packet>:
    b094:	e92d4010 	push	{r4, lr}
    b098:	e3a02000 	mov	r2, #0, 0
    b09c:	e3a01017 	mov	r1, #23, 0
    b0a0:	ebfff583 	bl	86b4 <nrf_bit_isset>
    b0a4:	e16f0f10 	clz	r0, r0
    b0a8:	e1a002a0 	lsr	r0, r0, #5
    b0ac:	e8bd8010 	pop	{r4, pc}

0000b0b0 <do_tx>:
    b0b0:	e92d4070 	push	{r4, r5, r6, lr}
    b0b4:	e1a04000 	mov	r4, r0
    b0b8:	e1a05002 	mov	r5, r2
    b0bc:	e1a03002 	mov	r3, r2
    b0c0:	e1a02001 	mov	r2, r1
    b0c4:	e3a010a0 	mov	r1, #160, 0	; 0xa0
    b0c8:	ebfff4d8 	bl	8430 <nrf_putn>
    b0cc:	e2840a02 	add	r0, r4, #8192	; 0x2000
    b0d0:	e5903040 	ldr	r3, [r0, #64]	; 0x40
    b0d4:	e2833001 	add	r3, r3, #1, 0
    b0d8:	e5803040 	str	r3, [r0, #64]	; 0x40
    b0dc:	e5902044 	ldr	r2, [r0, #68]	; 0x44
    b0e0:	e0825005 	add	r5, r2, r5
    b0e4:	e5805044 	str	r5, [r0, #68]	; 0x44
    b0e8:	e8bd8070 	pop	{r4, r5, r6, pc}

0000b0ec <nrf_tx_mode>:
    b0ec:	e92d4030 	push	{r4, r5, lr}
    b0f0:	e24dd01c 	sub	sp, sp, #28, 0
    b0f4:	e5d05001 	ldrb	r5, [r0, #1]
    b0f8:	e2453005 	sub	r3, r5, #5, 0
    b0fc:	e6ef3073 	uxtb	r3, r3
    b100:	e3530001 	cmp	r3, #1, 0
    b104:	8a00002a 	bhi	b1b4 <nrf_tx_mode+0xc8>
    b108:	e1a04000 	mov	r4, r0
    b10c:	eb0008c4 	bl	d424 <dev_barrier>
    b110:	e3a01000 	mov	r1, #0, 0
    b114:	e1a00005 	mov	r0, r5
    b118:	eb0006ac 	bl	cbd0 <gpio_write>
    b11c:	e3a01000 	mov	r1, #0, 0
    b120:	e1a00004 	mov	r0, r4
    b124:	ebfff43f 	bl	8228 <nrf_get8>
    b128:	e3100002 	tst	r0, #2, 0
    b12c:	1a000027 	bne	b1d0 <nrf_tx_mode+0xe4>
    b130:	e3a03000 	mov	r3, #0, 0
    b134:	e3530000 	cmp	r3, #0, 0
    b138:	0a00002b 	beq	b1ec <nrf_tx_mode+0x100>
    b13c:	e59f311c 	ldr	r3, [pc, #284]	; b260 <nrf_tx_mode+0x174>
    b140:	e58d300c 	str	r3, [sp, #12]
    b144:	e59f3118 	ldr	r3, [pc, #280]	; b264 <nrf_tx_mode+0x178>
    b148:	e58d3010 	str	r3, [sp, #16]
    b14c:	e3a030fa 	mov	r3, #250, 0	; 0xfa
    b150:	e58d3014 	str	r3, [sp, #20]
    b154:	e3a0307e 	mov	r3, #126, 0	; 0x7e
    b158:	e58d3004 	str	r3, [sp, #4]
    b15c:	e3a03000 	mov	r3, #0, 0
    b160:	e58d3000 	str	r3, [sp]
    b164:	e1a03004 	mov	r3, r4
    b168:	e28d2018 	add	r2, sp, #24, 0
    b16c:	e9120007 	ldmdb	r2, {r0, r1, r2}
    b170:	ebfff456 	bl	82d0 <nrf_put8_chk_helper>
    b174:	e5d45001 	ldrb	r5, [r4, #1]
    b178:	e2453005 	sub	r3, r5, #5, 0
    b17c:	e6ef3073 	uxtb	r3, r3
    b180:	e3530001 	cmp	r3, #1, 0
    b184:	8a000023 	bhi	b218 <nrf_tx_mode+0x12c>
    b188:	eb0008a5 	bl	d424 <dev_barrier>
    b18c:	e3a01001 	mov	r1, #1, 0
    b190:	e1a00005 	mov	r0, r5
    b194:	eb00068d 	bl	cbd0 <gpio_write>
    b198:	e3a01000 	mov	r1, #0, 0
    b19c:	e1a00004 	mov	r0, r4
    b1a0:	ebfff420 	bl	8228 <nrf_get8>
    b1a4:	e3100001 	tst	r0, #1, 0
    b1a8:	1a000021 	bne	b234 <nrf_tx_mode+0x148>
    b1ac:	e28dd01c 	add	sp, sp, #28, 0
    b1b0:	e8bd8030 	pop	{r4, r5, pc}
    b1b4:	e58d5000 	str	r5, [sp]
    b1b8:	e3a030d4 	mov	r3, #212, 0	; 0xd4
    b1bc:	e59f20a4 	ldr	r2, [pc, #164]	; b268 <nrf_tx_mode+0x17c>
    b1c0:	e59f1098 	ldr	r1, [pc, #152]	; b260 <nrf_tx_mode+0x174>
    b1c4:	e59f00a0 	ldr	r0, [pc, #160]	; b26c <nrf_tx_mode+0x180>
    b1c8:	eb000752 	bl	cf18 <printk>
    b1cc:	eb00085a 	bl	d33c <clean_reboot>
    b1d0:	e5d40001 	ldrb	r0, [r4, #1]
    b1d4:	eb000684 	bl	cbec <gpio_read>
    b1d8:	e3500000 	cmp	r0, #0, 0
    b1dc:	03a03001 	moveq	r3, #1, 0
    b1e0:	0affffd3 	beq	b134 <nrf_tx_mode+0x48>
    b1e4:	e3a03000 	mov	r3, #0, 0
    b1e8:	eaffffd1 	b	b134 <nrf_tx_mode+0x48>
    b1ec:	e1a01004 	mov	r1, r4
    b1f0:	e59f0078 	ldr	r0, [pc, #120]	; b270 <nrf_tx_mode+0x184>
    b1f4:	ebfff5b2 	bl	88c4 <nrf_dump>
    b1f8:	e59f3074 	ldr	r3, [pc, #116]	; b274 <nrf_tx_mode+0x188>
    b1fc:	e58d3000 	str	r3, [sp]
    b200:	e3a030f8 	mov	r3, #248, 0	; 0xf8
    b204:	e59f2058 	ldr	r2, [pc, #88]	; b264 <nrf_tx_mode+0x178>
    b208:	e59f1050 	ldr	r1, [pc, #80]	; b260 <nrf_tx_mode+0x174>
    b20c:	e59f0064 	ldr	r0, [pc, #100]	; b278 <nrf_tx_mode+0x18c>
    b210:	eb000740 	bl	cf18 <printk>
    b214:	eb000848 	bl	d33c <clean_reboot>
    b218:	e58d5000 	str	r5, [sp]
    b21c:	e3a030dc 	mov	r3, #220, 0	; 0xdc
    b220:	e59f2054 	ldr	r2, [pc, #84]	; b27c <nrf_tx_mode+0x190>
    b224:	e59f1034 	ldr	r1, [pc, #52]	; b260 <nrf_tx_mode+0x174>
    b228:	e59f003c 	ldr	r0, [pc, #60]	; b26c <nrf_tx_mode+0x180>
    b22c:	eb000739 	bl	cf18 <printk>
    b230:	eb000841 	bl	d33c <clean_reboot>
    b234:	e1a01004 	mov	r1, r4
    b238:	e59f0030 	ldr	r0, [pc, #48]	; b270 <nrf_tx_mode+0x184>
    b23c:	ebfff5a0 	bl	88c4 <nrf_dump>
    b240:	e59f3038 	ldr	r3, [pc, #56]	; b280 <nrf_tx_mode+0x194>
    b244:	e58d3000 	str	r3, [sp]
    b248:	e59f3034 	ldr	r3, [pc, #52]	; b284 <nrf_tx_mode+0x198>
    b24c:	e59f2010 	ldr	r2, [pc, #16]	; b264 <nrf_tx_mode+0x178>
    b250:	e59f1008 	ldr	r1, [pc, #8]	; b260 <nrf_tx_mode+0x174>
    b254:	e59f001c 	ldr	r0, [pc, #28]	; b278 <nrf_tx_mode+0x18c>
    b258:	eb00072e 	bl	cf18 <printk>
    b25c:	eb000836 	bl	d33c <clean_reboot>
    b260:	0000e8fc 	.word	0x0000e8fc
    b264:	0000eccc 	.word	0x0000eccc
    b268:	0000ecc4 	.word	0x0000ecc4
    b26c:	0000e3d8 	.word	0x0000e3d8
    b270:	0000e0ec 	.word	0x0000e0ec
    b274:	0000e910 	.word	0x0000e910
    b278:	0000e100 	.word	0x0000e100
    b27c:	0000ecd8 	.word	0x0000ecd8
    b280:	0000e414 	.word	0x0000e414
    b284:	00000102 	.word	0x00000102

0000b288 <nrf_rx_mode>:
    b288:	e92d4030 	push	{r4, r5, lr}
    b28c:	e24dd01c 	sub	sp, sp, #28, 0
    b290:	e5d05001 	ldrb	r5, [r0, #1]
    b294:	e2453005 	sub	r3, r5, #5, 0
    b298:	e6ef3073 	uxtb	r3, r3
    b29c:	e3530001 	cmp	r3, #1, 0
    b2a0:	8a000028 	bhi	b348 <nrf_rx_mode+0xc0>
    b2a4:	e1a04000 	mov	r4, r0
    b2a8:	eb00085d 	bl	d424 <dev_barrier>
    b2ac:	e3a01000 	mov	r1, #0, 0
    b2b0:	e1a00005 	mov	r0, r5
    b2b4:	eb000645 	bl	cbd0 <gpio_write>
    b2b8:	e59f30f8 	ldr	r3, [pc, #248]	; b3b8 <nrf_rx_mode+0x130>
    b2bc:	e5933000 	ldr	r3, [r3]
    b2c0:	e3530000 	cmp	r3, #0, 0
    b2c4:	1a000026 	bne	b364 <nrf_rx_mode+0xdc>
    b2c8:	e59f30ec 	ldr	r3, [pc, #236]	; b3bc <nrf_rx_mode+0x134>
    b2cc:	e58d300c 	str	r3, [sp, #12]
    b2d0:	e59f30e8 	ldr	r3, [pc, #232]	; b3c0 <nrf_rx_mode+0x138>
    b2d4:	e58d3010 	str	r3, [sp, #16]
    b2d8:	e3a030e6 	mov	r3, #230, 0	; 0xe6
    b2dc:	e58d3014 	str	r3, [sp, #20]
    b2e0:	e3a0307f 	mov	r3, #127, 0	; 0x7f
    b2e4:	e58d3004 	str	r3, [sp, #4]
    b2e8:	e3a03000 	mov	r3, #0, 0
    b2ec:	e58d3000 	str	r3, [sp]
    b2f0:	e1a03004 	mov	r3, r4
    b2f4:	e28d2018 	add	r2, sp, #24, 0
    b2f8:	e9120007 	ldmdb	r2, {r0, r1, r2}
    b2fc:	ebfff3f3 	bl	82d0 <nrf_put8_chk_helper>
    b300:	e5d45001 	ldrb	r5, [r4, #1]
    b304:	e2453005 	sub	r3, r5, #5, 0
    b308:	e6ef3073 	uxtb	r3, r3
    b30c:	e3530001 	cmp	r3, #1, 0
    b310:	8a000016 	bhi	b370 <nrf_rx_mode+0xe8>
    b314:	eb000842 	bl	d424 <dev_barrier>
    b318:	e3a01001 	mov	r1, #1, 0
    b31c:	e1a00005 	mov	r0, r5
    b320:	eb00062a 	bl	cbd0 <gpio_write>
    b324:	e3a0008c 	mov	r0, #140, 0	; 0x8c
    b328:	eb000870 	bl	d4f0 <delay_us>
    b32c:	e3a01000 	mov	r1, #0, 0
    b330:	e1a00004 	mov	r0, r4
    b334:	ebfff3bb 	bl	8228 <nrf_get8>
    b338:	e3100001 	tst	r0, #1, 0
    b33c:	0a000012 	beq	b38c <nrf_rx_mode+0x104>
    b340:	e28dd01c 	add	sp, sp, #28, 0
    b344:	e8bd8030 	pop	{r4, r5, pc}
    b348:	e58d5000 	str	r5, [sp]
    b34c:	e3a030d4 	mov	r3, #212, 0	; 0xd4
    b350:	e59f206c 	ldr	r2, [pc, #108]	; b3c4 <nrf_rx_mode+0x13c>
    b354:	e59f1060 	ldr	r1, [pc, #96]	; b3bc <nrf_rx_mode+0x134>
    b358:	e59f0068 	ldr	r0, [pc, #104]	; b3c8 <nrf_rx_mode+0x140>
    b35c:	eb0006ed 	bl	cf18 <printk>
    b360:	eb0007f5 	bl	d33c <clean_reboot>
    b364:	e59f0060 	ldr	r0, [pc, #96]	; b3cc <nrf_rx_mode+0x144>
    b368:	eb0006ea 	bl	cf18 <printk>
    b36c:	eaffffd5 	b	b2c8 <nrf_rx_mode+0x40>
    b370:	e58d5000 	str	r5, [sp]
    b374:	e3a030dc 	mov	r3, #220, 0	; 0xdc
    b378:	e59f2050 	ldr	r2, [pc, #80]	; b3d0 <nrf_rx_mode+0x148>
    b37c:	e59f1038 	ldr	r1, [pc, #56]	; b3bc <nrf_rx_mode+0x134>
    b380:	e59f0040 	ldr	r0, [pc, #64]	; b3c8 <nrf_rx_mode+0x140>
    b384:	eb0006e3 	bl	cf18 <printk>
    b388:	eb0007eb 	bl	d33c <clean_reboot>
    b38c:	e1a01004 	mov	r1, r4
    b390:	e59f003c 	ldr	r0, [pc, #60]	; b3d4 <nrf_rx_mode+0x14c>
    b394:	ebfff54a 	bl	88c4 <nrf_dump>
    b398:	e59f3038 	ldr	r3, [pc, #56]	; b3d8 <nrf_rx_mode+0x150>
    b39c:	e58d3000 	str	r3, [sp]
    b3a0:	e3a030ec 	mov	r3, #236, 0	; 0xec
    b3a4:	e59f2014 	ldr	r2, [pc, #20]	; b3c0 <nrf_rx_mode+0x138>
    b3a8:	e59f100c 	ldr	r1, [pc, #12]	; b3bc <nrf_rx_mode+0x134>
    b3ac:	e59f0028 	ldr	r0, [pc, #40]	; b3dc <nrf_rx_mode+0x154>
    b3b0:	eb0006d8 	bl	cf18 <printk>
    b3b4:	eb0007e0 	bl	d33c <clean_reboot>
    b3b8:	0000f0fc 	.word	0x0000f0fc
    b3bc:	0000e8fc 	.word	0x0000e8fc
    b3c0:	0000ece0 	.word	0x0000ece0
    b3c4:	0000ecc4 	.word	0x0000ecc4
    b3c8:	0000e3d8 	.word	0x0000e3d8
    b3cc:	0000e924 	.word	0x0000e924
    b3d0:	0000ecd8 	.word	0x0000ecd8
    b3d4:	0000e0ec 	.word	0x0000e0ec
    b3d8:	0000e404 	.word	0x0000e404
    b3dc:	0000e100 	.word	0x0000e100

0000b3e0 <staff_nrf_init>:
    b3e0:	e92d43f0 	push	{r4, r5, r6, r7, r8, r9, lr}
    b3e4:	e24dd0fc 	sub	sp, sp, #252, 0	; 0xfc
    b3e8:	e28d5020 	add	r5, sp, #32, 0
    b3ec:	e8850003 	stm	r5, {r0, r1}
    b3f0:	e1a06002 	mov	r6, r2
    b3f4:	e1a08003 	mov	r8, r3
    b3f8:	e59f0a84 	ldr	r0, [pc, #2692]	; be84 <staff_nrf_init+0xaa4>
    b3fc:	eb0008c4 	bl	d714 <kmalloc>
    b400:	e1a04000 	mov	r4, r0
    b404:	e8950003 	ldm	r5, {r0, r1}
    b408:	e5840000 	str	r0, [r4]
    b40c:	e5c41004 	strb	r1, [r4, #4]
    b410:	eb00082f 	bl	d4d4 <timer_get_usec>
    b414:	e2843a02 	add	r3, r4, #8192	; 0x2000
    b418:	e583003c 	str	r0, [r3, #60]	; 0x3c
    b41c:	e3a05000 	mov	r5, #0, 0
    b420:	e5835040 	str	r5, [r3, #64]	; 0x40
    b424:	e5835044 	str	r5, [r3, #68]	; 0x44
    b428:	e5835048 	str	r5, [r3, #72]	; 0x48
    b42c:	e583504c 	str	r5, [r3, #76]	; 0x4c
    b430:	e5835050 	str	r5, [r3, #80]	; 0x50
    b434:	e5835054 	str	r5, [r3, #84]	; 0x54
    b438:	e5dd2020 	ldrb	r2, [sp, #32]
    b43c:	e5dd1021 	ldrb	r1, [sp, #33]	; 0x21
    b440:	e28d0008 	add	r0, sp, #8, 0
    b444:	ebfff345 	bl	8160 <nrf_spi_init>
    b448:	e284e008 	add	lr, r4, #8, 0
    b44c:	e28dc008 	add	ip, sp, #8, 0
    b450:	e8bc000f 	ldm	ip!, {r0, r1, r2, r3}
    b454:	e8ae000f 	stmia	lr!, {r0, r1, r2, r3}
    b458:	e89c0003 	ldm	ip, {r0, r1}
    b45c:	e88e0003 	stm	lr, {r0, r1}
    b460:	e5846020 	str	r6, [r4, #32]
    b464:	e2847024 	add	r7, r4, #36, 0	; 0x24
    b468:	e59f2a18 	ldr	r2, [pc, #2584]	; be88 <staff_nrf_init+0xaa8>
    b46c:	e1a01005 	mov	r1, r5
    b470:	e1a00007 	mov	r0, r7
    b474:	eb00067f 	bl	ce78 <memset>
    b478:	e2872a02 	add	r2, r7, #8192	; 0x2000
    b47c:	e59f3a08 	ldr	r3, [pc, #2568]	; be8c <staff_nrf_init+0xaac>
    b480:	e5823000 	str	r3, [r2]
    b484:	e5825008 	str	r5, [r2, #8]
    b488:	e5825004 	str	r5, [r2, #4]
    b48c:	e582500c 	str	r5, [r2, #12]
    b490:	e5d23010 	ldrb	r3, [r2, #16]
    b494:	e3833001 	orr	r3, r3, #1, 0
    b498:	e5c23010 	strb	r3, [r2, #16]
    b49c:	e5921004 	ldr	r1, [r2, #4]
    b4a0:	e5923008 	ldr	r3, [r2, #8]
    b4a4:	e1510003 	cmp	r1, r3
    b4a8:	1a000081 	bne	b6b4 <staff_nrf_init+0x2d4>
    b4ac:	e2872a02 	add	r2, r7, #8192	; 0x2000
    b4b0:	e5923004 	ldr	r3, [r2, #4]
    b4b4:	e2833001 	add	r3, r3, #1, 0
    b4b8:	e1a03983 	lsl	r3, r3, #19
    b4bc:	e1a039a3 	lsr	r3, r3, #19
    b4c0:	e5922008 	ldr	r2, [r2, #8]
    b4c4:	e1530002 	cmp	r3, r2
    b4c8:	0a000081 	beq	b6d4 <staff_nrf_init+0x2f4>
    b4cc:	e2872a02 	add	r2, r7, #8192	; 0x2000
    b4d0:	e5923004 	ldr	r3, [r2, #4]
    b4d4:	e5922008 	ldr	r2, [r2, #8]
    b4d8:	e0433002 	sub	r3, r3, r2
    b4dc:	e1a03983 	lsl	r3, r3, #19
    b4e0:	e1a039a3 	lsr	r3, r3, #19
    b4e4:	e3530000 	cmp	r3, #0, 0
    b4e8:	1a000081 	bne	b6f4 <staff_nrf_init+0x314>
    b4ec:	e2873a02 	add	r3, r7, #8192	; 0x2000
    b4f0:	e5932004 	ldr	r2, [r3, #4]
    b4f4:	e5933008 	ldr	r3, [r3, #8]
    b4f8:	e1520003 	cmp	r2, r3
    b4fc:	0a000084 	beq	b714 <staff_nrf_init+0x334>
    b500:	e7d72003 	ldrb	r2, [r7, r3]
    b504:	e2833001 	add	r3, r3, #1, 0
    b508:	e1a03983 	lsl	r3, r3, #19
    b50c:	e1a039a3 	lsr	r3, r3, #19
    b510:	e2877a02 	add	r7, r7, #8192	; 0x2000
    b514:	e5873008 	str	r3, [r7, #8]
    b518:	e3a03001 	mov	r3, #1, 0
    b51c:	e3530000 	cmp	r3, #0, 0
    b520:	1a00007e 	bne	b720 <staff_nrf_init+0x340>
    b524:	e3520012 	cmp	r2, #18, 0
    b528:	1a00007c 	bne	b720 <staff_nrf_init+0x340>
    b52c:	e59f395c 	ldr	r3, [pc, #2396]	; be90 <staff_nrf_init+0xab0>
    b530:	e58d302c 	str	r3, [sp, #44]	; 0x2c
    b534:	e59f3958 	ldr	r3, [pc, #2392]	; be94 <staff_nrf_init+0xab4>
    b538:	e58d3030 	str	r3, [sp, #48]	; 0x30
    b53c:	e3a03038 	mov	r3, #56, 0	; 0x38
    b540:	e58d3034 	str	r3, [sp, #52]	; 0x34
    b544:	e3a05000 	mov	r5, #0, 0
    b548:	e58d5004 	str	r5, [sp, #4]
    b54c:	e58d5000 	str	r5, [sp]
    b550:	e1a03004 	mov	r3, r4
    b554:	e28d202c 	add	r2, sp, #44, 0	; 0x2c
    b558:	e8920007 	ldm	r2, {r0, r1, r2}
    b55c:	ebfff35b 	bl	82d0 <nrf_put8_chk_helper>
    b560:	e1a01005 	mov	r1, r5
    b564:	e1a00004 	mov	r0, r4
    b568:	ebfff32e 	bl	8228 <nrf_get8>
    b56c:	e3100002 	tst	r0, #2, 0
    b570:	1a000072 	bne	b740 <staff_nrf_init+0x360>
    b574:	e59f3914 	ldr	r3, [pc, #2324]	; be90 <staff_nrf_init+0xab0>
    b578:	e58d3038 	str	r3, [sp, #56]	; 0x38
    b57c:	e59f3910 	ldr	r3, [pc, #2320]	; be94 <staff_nrf_init+0xab4>
    b580:	e58d303c 	str	r3, [sp, #60]	; 0x3c
    b584:	e3a0303c 	mov	r3, #60, 0	; 0x3c
    b588:	e58d3040 	str	r3, [sp, #64]	; 0x40
    b58c:	e3a03000 	mov	r3, #0, 0
    b590:	e58d3004 	str	r3, [sp, #4]
    b594:	e3a03002 	mov	r3, #2, 0
    b598:	e58d3000 	str	r3, [sp]
    b59c:	e1a03004 	mov	r3, r4
    b5a0:	e28d2038 	add	r2, sp, #56, 0	; 0x38
    b5a4:	e8920007 	ldm	r2, {r0, r1, r2}
    b5a8:	ebfff348 	bl	82d0 <nrf_put8_chk_helper>
    b5ac:	e3580000 	cmp	r8, #0, 0
    b5b0:	1a000082 	bne	b7c0 <staff_nrf_init+0x3e0>
    b5b4:	e59f88d4 	ldr	r8, [pc, #2260]	; be90 <staff_nrf_init+0xab0>
    b5b8:	e58d8044 	str	r8, [sp, #68]	; 0x44
    b5bc:	e59f78d0 	ldr	r7, [pc, #2256]	; be94 <staff_nrf_init+0xab4>
    b5c0:	e58d7048 	str	r7, [sp, #72]	; 0x48
    b5c4:	e3a03041 	mov	r3, #65, 0	; 0x41
    b5c8:	e58d304c 	str	r3, [sp, #76]	; 0x4c
    b5cc:	e3a09000 	mov	r9, #0, 0
    b5d0:	e58d9004 	str	r9, [sp, #4]
    b5d4:	e3a03001 	mov	r3, #1, 0
    b5d8:	e58d3000 	str	r3, [sp]
    b5dc:	e1a03004 	mov	r3, r4
    b5e0:	e28d2044 	add	r2, sp, #68, 0	; 0x44
    b5e4:	e8920007 	ldm	r2, {r0, r1, r2}
    b5e8:	ebfff338 	bl	82d0 <nrf_put8_chk_helper>
    b5ec:	e58d8050 	str	r8, [sp, #80]	; 0x50
    b5f0:	e58d7054 	str	r7, [sp, #84]	; 0x54
    b5f4:	e3a03043 	mov	r3, #67, 0	; 0x43
    b5f8:	e58d3058 	str	r3, [sp, #88]	; 0x58
    b5fc:	e3a05002 	mov	r5, #2, 0
    b600:	e58d5004 	str	r5, [sp, #4]
    b604:	e58d5000 	str	r5, [sp]
    b608:	e1a03004 	mov	r3, r4
    b60c:	e28d2050 	add	r2, sp, #80, 0	; 0x50
    b610:	e8920007 	ldm	r2, {r0, r1, r2}
    b614:	ebfff32d 	bl	82d0 <nrf_put8_chk_helper>
    b618:	e58d805c 	str	r8, [sp, #92]	; 0x5c
    b61c:	e58d7060 	str	r7, [sp, #96]	; 0x60
    b620:	e3a03044 	mov	r3, #68, 0	; 0x44
    b624:	e58d3064 	str	r3, [sp, #100]	; 0x64
    b628:	e58d9004 	str	r9, [sp, #4]
    b62c:	e3a03004 	mov	r3, #4, 0
    b630:	e58d3000 	str	r3, [sp]
    b634:	e1a03004 	mov	r3, r4
    b638:	e28d205c 	add	r2, sp, #92, 0	; 0x5c
    b63c:	e8920007 	ldm	r2, {r0, r1, r2}
    b640:	ebfff322 	bl	82d0 <nrf_put8_chk_helper>
    b644:	e1a01005 	mov	r1, r5
    b648:	e1a00004 	mov	r0, r4
    b64c:	ebfff2f5 	bl	8228 <nrf_get8>
    b650:	e3100002 	tst	r0, #2, 0
    b654:	0a000041 	beq	b760 <staff_nrf_init+0x380>
    b658:	e3a01001 	mov	r1, #1, 0
    b65c:	e1a00004 	mov	r0, r4
    b660:	ebfff2f0 	bl	8228 <nrf_get8>
    b664:	e3100002 	tst	r0, #2, 0
    b668:	1a000044 	bne	b780 <staff_nrf_init+0x3a0>
    b66c:	e3a01002 	mov	r1, #2, 0
    b670:	e1a00004 	mov	r0, r4
    b674:	ebfff2eb 	bl	8228 <nrf_get8>
    b678:	e3100001 	tst	r0, #1, 0
    b67c:	1a000047 	bne	b7a0 <staff_nrf_init+0x3c0>
    b680:	e3a05002 	mov	r5, #2, 0
    b684:	e3550005 	cmp	r5, #5, 0
    b688:	ca0000b5 	bgt	b964 <staff_nrf_init+0x584>
    b68c:	e3a01002 	mov	r1, #2, 0
    b690:	e1a00004 	mov	r0, r4
    b694:	ebfff2e3 	bl	8228 <nrf_get8>
    b698:	e355001f 	cmp	r5, #31, 0
    b69c:	8a0000a0 	bhi	b924 <staff_nrf_init+0x544>
    b6a0:	e1a00530 	lsr	r0, r0, r5
    b6a4:	e3100001 	tst	r0, #1, 0
    b6a8:	1a0000a5 	bne	b944 <staff_nrf_init+0x564>
    b6ac:	e2855001 	add	r5, r5, #1, 0
    b6b0:	eafffff3 	b	b684 <staff_nrf_init+0x2a4>
    b6b4:	e59f37dc 	ldr	r3, [pc, #2012]	; be98 <staff_nrf_init+0xab8>
    b6b8:	e58d3000 	str	r3, [sp]
    b6bc:	e3a030d4 	mov	r3, #212, 0	; 0xd4
    b6c0:	e59f27d4 	ldr	r2, [pc, #2004]	; be9c <staff_nrf_init+0xabc>
    b6c4:	e59f17d4 	ldr	r1, [pc, #2004]	; bea0 <staff_nrf_init+0xac0>
    b6c8:	e59f07d4 	ldr	r0, [pc, #2004]	; bea4 <staff_nrf_init+0xac4>
    b6cc:	eb000611 	bl	cf18 <printk>
    b6d0:	eb000719 	bl	d33c <clean_reboot>
    b6d4:	e59f37cc 	ldr	r3, [pc, #1996]	; bea8 <staff_nrf_init+0xac8>
    b6d8:	e58d3000 	str	r3, [sp]
    b6dc:	e3a030d5 	mov	r3, #213, 0	; 0xd5
    b6e0:	e59f27b4 	ldr	r2, [pc, #1972]	; be9c <staff_nrf_init+0xabc>
    b6e4:	e59f17b4 	ldr	r1, [pc, #1972]	; bea0 <staff_nrf_init+0xac0>
    b6e8:	e59f07b4 	ldr	r0, [pc, #1972]	; bea4 <staff_nrf_init+0xac4>
    b6ec:	eb000609 	bl	cf18 <printk>
    b6f0:	eb000711 	bl	d33c <clean_reboot>
    b6f4:	e59f37b0 	ldr	r3, [pc, #1968]	; beac <staff_nrf_init+0xacc>
    b6f8:	e58d3000 	str	r3, [sp]
    b6fc:	e3a030d6 	mov	r3, #214, 0	; 0xd6
    b700:	e59f2794 	ldr	r2, [pc, #1940]	; be9c <staff_nrf_init+0xabc>
    b704:	e59f1794 	ldr	r1, [pc, #1940]	; bea0 <staff_nrf_init+0xac0>
    b708:	e59f0794 	ldr	r0, [pc, #1940]	; bea4 <staff_nrf_init+0xac4>
    b70c:	eb000601 	bl	cf18 <printk>
    b710:	eb000709 	bl	d33c <clean_reboot>
    b714:	e3a02012 	mov	r2, #18, 0
    b718:	e3a03000 	mov	r3, #0, 0
    b71c:	eaffff7e 	b	b51c <staff_nrf_init+0x13c>
    b720:	e59f3788 	ldr	r3, [pc, #1928]	; beb0 <staff_nrf_init+0xad0>
    b724:	e58d3000 	str	r3, [sp]
    b728:	e3a030d8 	mov	r3, #216, 0	; 0xd8
    b72c:	e59f2768 	ldr	r2, [pc, #1896]	; be9c <staff_nrf_init+0xabc>
    b730:	e59f1768 	ldr	r1, [pc, #1896]	; bea0 <staff_nrf_init+0xac0>
    b734:	e59f0768 	ldr	r0, [pc, #1896]	; bea4 <staff_nrf_init+0xac4>
    b738:	eb0005f6 	bl	cf18 <printk>
    b73c:	eb0006fe 	bl	d33c <clean_reboot>
    b740:	e59f376c 	ldr	r3, [pc, #1900]	; beb4 <staff_nrf_init+0xad4>
    b744:	e58d3000 	str	r3, [sp]
    b748:	e3a03039 	mov	r3, #57, 0	; 0x39
    b74c:	e59f2740 	ldr	r2, [pc, #1856]	; be94 <staff_nrf_init+0xab4>
    b750:	e59f1738 	ldr	r1, [pc, #1848]	; be90 <staff_nrf_init+0xab0>
    b754:	e59f0748 	ldr	r0, [pc, #1864]	; bea4 <staff_nrf_init+0xac4>
    b758:	eb0005ee 	bl	cf18 <printk>
    b75c:	eb0006f6 	bl	d33c <clean_reboot>
    b760:	e59f3750 	ldr	r3, [pc, #1872]	; beb8 <staff_nrf_init+0xad8>
    b764:	e58d3000 	str	r3, [sp]
    b768:	e3a03046 	mov	r3, #70, 0	; 0x46
    b76c:	e1a02007 	mov	r2, r7
    b770:	e1a01008 	mov	r1, r8
    b774:	e59f0728 	ldr	r0, [pc, #1832]	; bea4 <staff_nrf_init+0xac4>
    b778:	eb0005e6 	bl	cf18 <printk>
    b77c:	eb0006ee 	bl	d33c <clean_reboot>
    b780:	e59f3734 	ldr	r3, [pc, #1844]	; bebc <staff_nrf_init+0xadc>
    b784:	e58d3000 	str	r3, [sp]
    b788:	e3a03047 	mov	r3, #71, 0	; 0x47
    b78c:	e59f2700 	ldr	r2, [pc, #1792]	; be94 <staff_nrf_init+0xab4>
    b790:	e59f16f8 	ldr	r1, [pc, #1784]	; be90 <staff_nrf_init+0xab0>
    b794:	e59f0708 	ldr	r0, [pc, #1800]	; bea4 <staff_nrf_init+0xac4>
    b798:	eb0005de 	bl	cf18 <printk>
    b79c:	eb0006e6 	bl	d33c <clean_reboot>
    b7a0:	e59f3718 	ldr	r3, [pc, #1816]	; bec0 <staff_nrf_init+0xae0>
    b7a4:	e58d3000 	str	r3, [sp]
    b7a8:	e3a03048 	mov	r3, #72, 0	; 0x48
    b7ac:	e59f26e0 	ldr	r2, [pc, #1760]	; be94 <staff_nrf_init+0xab4>
    b7b0:	e59f16d8 	ldr	r1, [pc, #1752]	; be90 <staff_nrf_init+0xab0>
    b7b4:	e59f06e8 	ldr	r0, [pc, #1768]	; bea4 <staff_nrf_init+0xac4>
    b7b8:	eb0005d6 	bl	cf18 <printk>
    b7bc:	eb0006de 	bl	d33c <clean_reboot>
    b7c0:	e59f76c8 	ldr	r7, [pc, #1736]	; be90 <staff_nrf_init+0xab0>
    b7c4:	e58d7068 	str	r7, [sp, #104]	; 0x68
    b7c8:	e59f56c4 	ldr	r5, [pc, #1732]	; be94 <staff_nrf_init+0xab4>
    b7cc:	e58d506c 	str	r5, [sp, #108]	; 0x6c
    b7d0:	e3a0304d 	mov	r3, #77, 0	; 0x4d
    b7d4:	e58d3070 	str	r3, [sp, #112]	; 0x70
    b7d8:	e3a08003 	mov	r8, #3, 0
    b7dc:	e58d8004 	str	r8, [sp, #4]
    b7e0:	e3a03001 	mov	r3, #1, 0
    b7e4:	e58d3000 	str	r3, [sp]
    b7e8:	e1a03004 	mov	r3, r4
    b7ec:	e28d2068 	add	r2, sp, #104, 0	; 0x68
    b7f0:	e8920007 	ldm	r2, {r0, r1, r2}
    b7f4:	ebfff2b5 	bl	82d0 <nrf_put8_chk_helper>
    b7f8:	e58d7074 	str	r7, [sp, #116]	; 0x74
    b7fc:	e58d5078 	str	r5, [sp, #120]	; 0x78
    b800:	e3a03050 	mov	r3, #80, 0	; 0x50
    b804:	e58d307c 	str	r3, [sp, #124]	; 0x7c
    b808:	e58d8004 	str	r8, [sp, #4]
    b80c:	e3a08002 	mov	r8, #2, 0
    b810:	e58d8000 	str	r8, [sp]
    b814:	e1a03004 	mov	r3, r4
    b818:	e28d2074 	add	r2, sp, #116, 0	; 0x74
    b81c:	e8920007 	ldm	r2, {r0, r1, r2}
    b820:	ebfff2aa 	bl	82d0 <nrf_put8_chk_helper>
    b824:	e58d7080 	str	r7, [sp, #128]	; 0x80
    b828:	e58d5084 	str	r5, [sp, #132]	; 0x84
    b82c:	e3a0305e 	mov	r3, #94, 0	; 0x5e
    b830:	e58d3088 	str	r3, [sp, #136]	; 0x88
    b834:	e3a03076 	mov	r3, #118, 0	; 0x76
    b838:	e58d3004 	str	r3, [sp, #4]
    b83c:	e3a03004 	mov	r3, #4, 0
    b840:	e58d3000 	str	r3, [sp]
    b844:	e1a03004 	mov	r3, r4
    b848:	e28d2080 	add	r2, sp, #128, 0	; 0x80
    b84c:	e8920007 	ldm	r2, {r0, r1, r2}
    b850:	ebfff29e 	bl	82d0 <nrf_put8_chk_helper>
    b854:	e1a01008 	mov	r1, r8
    b858:	e1a00004 	mov	r0, r4
    b85c:	ebfff271 	bl	8228 <nrf_get8>
    b860:	e3100001 	tst	r0, #1, 0
    b864:	0a000016 	beq	b8c4 <staff_nrf_init+0x4e4>
    b868:	e3a01002 	mov	r1, #2, 0
    b86c:	e1a00004 	mov	r0, r4
    b870:	ebfff26c 	bl	8228 <nrf_get8>
    b874:	e3100002 	tst	r0, #2, 0
    b878:	0a000019 	beq	b8e4 <staff_nrf_init+0x504>
    b87c:	e3a01001 	mov	r1, #1, 0
    b880:	e1a00004 	mov	r0, r4
    b884:	ebfff267 	bl	8228 <nrf_get8>
    b888:	e3100002 	tst	r0, #2, 0
    b88c:	0a00001c 	beq	b904 <staff_nrf_init+0x524>
    b890:	e3a01001 	mov	r1, #1, 0
    b894:	e1a00004 	mov	r0, r4
    b898:	ebfff262 	bl	8228 <nrf_get8>
    b89c:	e3100001 	tst	r0, #1, 0
    b8a0:	1affff76 	bne	b680 <staff_nrf_init+0x2a0>
    b8a4:	e59f3618 	ldr	r3, [pc, #1560]	; bec4 <staff_nrf_init+0xae4>
    b8a8:	e58d3000 	str	r3, [sp]
    b8ac:	e3a03064 	mov	r3, #100, 0	; 0x64
    b8b0:	e59f25dc 	ldr	r2, [pc, #1500]	; be94 <staff_nrf_init+0xab4>
    b8b4:	e59f15d4 	ldr	r1, [pc, #1492]	; be90 <staff_nrf_init+0xab0>
    b8b8:	e59f05e4 	ldr	r0, [pc, #1508]	; bea4 <staff_nrf_init+0xac4>
    b8bc:	eb000595 	bl	cf18 <printk>
    b8c0:	eb00069d 	bl	d33c <clean_reboot>
    b8c4:	e59f35fc 	ldr	r3, [pc, #1532]	; bec8 <staff_nrf_init+0xae8>
    b8c8:	e58d3000 	str	r3, [sp]
    b8cc:	e3a03061 	mov	r3, #97, 0	; 0x61
    b8d0:	e1a02005 	mov	r2, r5
    b8d4:	e1a01007 	mov	r1, r7
    b8d8:	e59f05c4 	ldr	r0, [pc, #1476]	; bea4 <staff_nrf_init+0xac4>
    b8dc:	eb00058d 	bl	cf18 <printk>
    b8e0:	eb000695 	bl	d33c <clean_reboot>
    b8e4:	e59f35cc 	ldr	r3, [pc, #1484]	; beb8 <staff_nrf_init+0xad8>
    b8e8:	e58d3000 	str	r3, [sp]
    b8ec:	e3a03062 	mov	r3, #98, 0	; 0x62
    b8f0:	e59f259c 	ldr	r2, [pc, #1436]	; be94 <staff_nrf_init+0xab4>
    b8f4:	e59f1594 	ldr	r1, [pc, #1428]	; be90 <staff_nrf_init+0xab0>
    b8f8:	e59f05a4 	ldr	r0, [pc, #1444]	; bea4 <staff_nrf_init+0xac4>
    b8fc:	eb000585 	bl	cf18 <printk>
    b900:	eb00068d 	bl	d33c <clean_reboot>
    b904:	e59f35c0 	ldr	r3, [pc, #1472]	; becc <staff_nrf_init+0xaec>
    b908:	e58d3000 	str	r3, [sp]
    b90c:	e3a03063 	mov	r3, #99, 0	; 0x63
    b910:	e59f257c 	ldr	r2, [pc, #1404]	; be94 <staff_nrf_init+0xab4>
    b914:	e59f1574 	ldr	r1, [pc, #1396]	; be90 <staff_nrf_init+0xab0>
    b918:	e59f0584 	ldr	r0, [pc, #1412]	; bea4 <staff_nrf_init+0xac4>
    b91c:	eb00057d 	bl	cf18 <printk>
    b920:	eb000685 	bl	d33c <clean_reboot>
    b924:	e59f35a4 	ldr	r3, [pc, #1444]	; bed0 <staff_nrf_init+0xaf0>
    b928:	e58d3000 	str	r3, [sp]
    b92c:	e3a0301f 	mov	r3, #31, 0
    b930:	e59f259c 	ldr	r2, [pc, #1436]	; bed4 <staff_nrf_init+0xaf4>
    b934:	e59f159c 	ldr	r1, [pc, #1436]	; bed8 <staff_nrf_init+0xaf8>
    b938:	e59f0564 	ldr	r0, [pc, #1380]	; bea4 <staff_nrf_init+0xac4>
    b93c:	eb000575 	bl	cf18 <printk>
    b940:	eb00067d 	bl	d33c <clean_reboot>
    b944:	e59f3590 	ldr	r3, [pc, #1424]	; bedc <staff_nrf_init+0xafc>
    b948:	e58d3000 	str	r3, [sp]
    b94c:	e3a03069 	mov	r3, #105, 0	; 0x69
    b950:	e59f253c 	ldr	r2, [pc, #1340]	; be94 <staff_nrf_init+0xab4>
    b954:	e59f1534 	ldr	r1, [pc, #1332]	; be90 <staff_nrf_init+0xab0>
    b958:	e59f0544 	ldr	r0, [pc, #1348]	; bea4 <staff_nrf_init+0xac4>
    b95c:	eb00056d 	bl	cf18 <printk>
    b960:	eb000675 	bl	d33c <clean_reboot>
    b964:	e59f8524 	ldr	r8, [pc, #1316]	; be90 <staff_nrf_init+0xab0>
    b968:	e58d808c 	str	r8, [sp, #140]	; 0x8c
    b96c:	e59f7520 	ldr	r7, [pc, #1312]	; be94 <staff_nrf_init+0xab4>
    b970:	e58d7090 	str	r7, [sp, #144]	; 0x90
    b974:	e3a0306e 	mov	r3, #110, 0	; 0x6e
    b978:	e58d3094 	str	r3, [sp, #148]	; 0x94
    b97c:	e3a03001 	mov	r3, #1, 0
    b980:	e58d3004 	str	r3, [sp, #4]
    b984:	e3a05003 	mov	r5, #3, 0
    b988:	e58d5000 	str	r5, [sp]
    b98c:	e1a03004 	mov	r3, r4
    b990:	e28d208c 	add	r2, sp, #140, 0	; 0x8c
    b994:	e8920007 	ldm	r2, {r0, r1, r2}
    b998:	ebfff24c 	bl	82d0 <nrf_put8_chk_helper>
    b99c:	e1a03005 	mov	r3, r5
    b9a0:	e3a02000 	mov	r2, #0, 0
    b9a4:	e3a01010 	mov	r1, #16, 0
    b9a8:	e1a00004 	mov	r0, r4
    b9ac:	ebfff563 	bl	8f40 <nrf_set_addr>
    b9b0:	e58d8098 	str	r8, [sp, #152]	; 0x98
    b9b4:	e58d709c 	str	r7, [sp, #156]	; 0x9c
    b9b8:	e3a03073 	mov	r3, #115, 0	; 0x73
    b9bc:	e58d30a0 	str	r3, [sp, #160]	; 0xa0
    b9c0:	e5dd3023 	ldrb	r3, [sp, #35]	; 0x23
    b9c4:	e58d3004 	str	r3, [sp, #4]
    b9c8:	e3a03012 	mov	r3, #18, 0
    b9cc:	e58d3000 	str	r3, [sp]
    b9d0:	e1a03004 	mov	r3, r4
    b9d4:	e28d2098 	add	r2, sp, #152, 0	; 0x98
    b9d8:	e8920007 	ldm	r2, {r0, r1, r2}
    b9dc:	ebfff23b 	bl	82d0 <nrf_put8_chk_helper>
    b9e0:	e1a03005 	mov	r3, r5
    b9e4:	e1a02006 	mov	r2, r6
    b9e8:	e3a0100b 	mov	r1, #11, 0
    b9ec:	e1a00004 	mov	r0, r4
    b9f0:	ebfff552 	bl	8f40 <nrf_set_addr>
    b9f4:	e3a01002 	mov	r1, #2, 0
    b9f8:	e1a00004 	mov	r0, r4
    b9fc:	ebfff209 	bl	8228 <nrf_get8>
    ba00:	e3100001 	tst	r0, #1, 0
    ba04:	1a0000b4 	bne	bcdc <staff_nrf_init+0x8fc>
    ba08:	e59f6480 	ldr	r6, [pc, #1152]	; be90 <staff_nrf_init+0xab0>
    ba0c:	e58d60a4 	str	r6, [sp, #164]	; 0xa4
    ba10:	e59f547c 	ldr	r5, [pc, #1148]	; be94 <staff_nrf_init+0xab4>
    ba14:	e58d50a8 	str	r5, [sp, #168]	; 0xa8
    ba18:	e3a0307c 	mov	r3, #124, 0	; 0x7c
    ba1c:	e58d30ac 	str	r3, [sp, #172]	; 0xac
    ba20:	e3a07000 	mov	r7, #0, 0
    ba24:	e58d7004 	str	r7, [sp, #4]
    ba28:	e3a03013 	mov	r3, #19, 0
    ba2c:	e58d3000 	str	r3, [sp]
    ba30:	e1a03004 	mov	r3, r4
    ba34:	e28d20a4 	add	r2, sp, #164, 0	; 0xa4
    ba38:	e8920007 	ldm	r2, {r0, r1, r2}
    ba3c:	ebfff223 	bl	82d0 <nrf_put8_chk_helper>
    ba40:	e58d60b0 	str	r6, [sp, #176]	; 0xb0
    ba44:	e58d50b4 	str	r5, [sp, #180]	; 0xb4
    ba48:	e3a0307d 	mov	r3, #125, 0	; 0x7d
    ba4c:	e58d30b8 	str	r3, [sp, #184]	; 0xb8
    ba50:	e58d7004 	str	r7, [sp, #4]
    ba54:	e3a03014 	mov	r3, #20, 0
    ba58:	e58d3000 	str	r3, [sp]
    ba5c:	e1a03004 	mov	r3, r4
    ba60:	e28d20b0 	add	r2, sp, #176, 0	; 0xb0
    ba64:	e8920007 	ldm	r2, {r0, r1, r2}
    ba68:	ebfff218 	bl	82d0 <nrf_put8_chk_helper>
    ba6c:	e58d60bc 	str	r6, [sp, #188]	; 0xbc
    ba70:	e58d50c0 	str	r5, [sp, #192]	; 0xc0
    ba74:	e3a0307e 	mov	r3, #126, 0	; 0x7e
    ba78:	e58d30c4 	str	r3, [sp, #196]	; 0xc4
    ba7c:	e58d7004 	str	r7, [sp, #4]
    ba80:	e3a03015 	mov	r3, #21, 0
    ba84:	e58d3000 	str	r3, [sp]
    ba88:	e1a03004 	mov	r3, r4
    ba8c:	e28d20bc 	add	r2, sp, #188, 0	; 0xbc
    ba90:	e8920007 	ldm	r2, {r0, r1, r2}
    ba94:	ebfff20d 	bl	82d0 <nrf_put8_chk_helper>
    ba98:	e58d60c8 	str	r6, [sp, #200]	; 0xc8
    ba9c:	e58d50cc 	str	r5, [sp, #204]	; 0xcc
    baa0:	e3a0307f 	mov	r3, #127, 0	; 0x7f
    baa4:	e58d30d0 	str	r3, [sp, #208]	; 0xd0
    baa8:	e58d7004 	str	r7, [sp, #4]
    baac:	e3a03016 	mov	r3, #22, 0
    bab0:	e58d3000 	str	r3, [sp]
    bab4:	e1a03004 	mov	r3, r4
    bab8:	e28d20c8 	add	r2, sp, #200, 0	; 0xc8
    babc:	e8920007 	ldm	r2, {r0, r1, r2}
    bac0:	ebfff202 	bl	82d0 <nrf_put8_chk_helper>
    bac4:	e58d60d4 	str	r6, [sp, #212]	; 0xd4
    bac8:	e58d50d8 	str	r5, [sp, #216]	; 0xd8
    bacc:	e3a03082 	mov	r3, #130, 0	; 0x82
    bad0:	e58d30dc 	str	r3, [sp, #220]	; 0xdc
    bad4:	e5dd3024 	ldrb	r3, [sp, #36]	; 0x24
    bad8:	e58d3004 	str	r3, [sp, #4]
    badc:	e3a03005 	mov	r3, #5, 0
    bae0:	e58d3000 	str	r3, [sp]
    bae4:	e1a03004 	mov	r3, r4
    bae8:	e28d20d4 	add	r2, sp, #212, 0	; 0xd4
    baec:	e8920007 	ldm	r2, {r0, r1, r2}
    baf0:	ebfff1f6 	bl	82d0 <nrf_put8_chk_helper>
    baf4:	e58d60e0 	str	r6, [sp, #224]	; 0xe0
    baf8:	e58d50e4 	str	r5, [sp, #228]	; 0xe4
    bafc:	e3a0308d 	mov	r3, #141, 0	; 0x8d
    bb00:	e58d30e8 	str	r3, [sp, #232]	; 0xe8
    bb04:	e3a0300e 	mov	r3, #14, 0
    bb08:	e58d3004 	str	r3, [sp, #4]
    bb0c:	e3a03006 	mov	r3, #6, 0
    bb10:	e58d3000 	str	r3, [sp]
    bb14:	e1a03004 	mov	r3, r4
    bb18:	e28d20e0 	add	r2, sp, #224, 0	; 0xe0
    bb1c:	e8920007 	ldm	r2, {r0, r1, r2}
    bb20:	ebfff1ea 	bl	82d0 <nrf_put8_chk_helper>
    bb24:	e1a00004 	mov	r0, r4
    bb28:	ebfff328 	bl	87d0 <nrf_tx_flush>
    bb2c:	e1a00004 	mov	r0, r4
    bb30:	ebfff33c 	bl	8828 <nrf_rx_flush>
    bb34:	e3a020ff 	mov	r2, #255, 0	; 0xff
    bb38:	e3a01007 	mov	r1, #7, 0
    bb3c:	e1a00004 	mov	r0, r4
    bb40:	ebfff1cd 	bl	827c <nrf_put8>
    bb44:	e3a01007 	mov	r1, #7, 0
    bb48:	e1a00004 	mov	r0, r4
    bb4c:	ebfff1b5 	bl	8228 <nrf_get8>
    bb50:	e350000e 	cmp	r0, #14, 0
    bb54:	1a000066 	bne	bcf4 <staff_nrf_init+0x914>
    bb58:	e3a02005 	mov	r2, #5, 0
    bb5c:	e3a01017 	mov	r1, #23, 0
    bb60:	e1a00004 	mov	r0, r4
    bb64:	ebfff2d2 	bl	86b4 <nrf_bit_isset>
    bb68:	e3500000 	cmp	r0, #0, 0
    bb6c:	1a000068 	bne	bd14 <staff_nrf_init+0x934>
    bb70:	e3a02004 	mov	r2, #4, 0
    bb74:	e3a01017 	mov	r1, #23, 0
    bb78:	e1a00004 	mov	r0, r4
    bb7c:	ebfff2cc 	bl	86b4 <nrf_bit_isset>
    bb80:	e3500000 	cmp	r0, #0, 0
    bb84:	0a00006a 	beq	bd34 <staff_nrf_init+0x954>
    bb88:	e3a02001 	mov	r2, #1, 0
    bb8c:	e3a01017 	mov	r1, #23, 0
    bb90:	e1a00004 	mov	r0, r4
    bb94:	ebfff2c6 	bl	86b4 <nrf_bit_isset>
    bb98:	e3500000 	cmp	r0, #0, 0
    bb9c:	1a00006c 	bne	bd54 <staff_nrf_init+0x974>
    bba0:	e3a02000 	mov	r2, #0, 0
    bba4:	e3a01017 	mov	r1, #23, 0
    bba8:	e1a00004 	mov	r0, r4
    bbac:	ebfff2c0 	bl	86b4 <nrf_bit_isset>
    bbb0:	e3500000 	cmp	r0, #0, 0
    bbb4:	0a00006e 	beq	bd74 <staff_nrf_init+0x994>
    bbb8:	e3a02006 	mov	r2, #6, 0
    bbbc:	e3a01007 	mov	r1, #7, 0
    bbc0:	e1a00004 	mov	r0, r4
    bbc4:	ebfff2ba 	bl	86b4 <nrf_bit_isset>
    bbc8:	e3500000 	cmp	r0, #0, 0
    bbcc:	1a000070 	bne	bd94 <staff_nrf_init+0x9b4>
    bbd0:	e3a02005 	mov	r2, #5, 0
    bbd4:	e3a01007 	mov	r1, #7, 0
    bbd8:	e1a00004 	mov	r0, r4
    bbdc:	ebfff2b4 	bl	86b4 <nrf_bit_isset>
    bbe0:	e3500000 	cmp	r0, #0, 0
    bbe4:	1a000072 	bne	bdb4 <staff_nrf_init+0x9d4>
    bbe8:	e3a01007 	mov	r1, #7, 0
    bbec:	e1a00004 	mov	r0, r4
    bbf0:	ebfff18c 	bl	8228 <nrf_get8>
    bbf4:	e1a000a0 	lsr	r0, r0, #1
    bbf8:	e2000007 	and	r0, r0, #7, 0
    bbfc:	e3500007 	cmp	r0, #7, 0
    bc00:	1a000073 	bne	bdd4 <staff_nrf_init+0x9f4>
    bc04:	e1a00004 	mov	r0, r4
    bc08:	ebfffd21 	bl	b094 <nrf_rx_has_packet>
    bc0c:	e3500000 	cmp	r0, #0, 0
    bc10:	1a000077 	bne	bdf4 <staff_nrf_init+0xa14>
    bc14:	e3a0101c 	mov	r1, #28, 0
    bc18:	e1a00004 	mov	r0, r4
    bc1c:	ebfff181 	bl	8228 <nrf_get8>
    bc20:	e3500000 	cmp	r0, #0, 0
    bc24:	1a00007a 	bne	be14 <staff_nrf_init+0xa34>
    bc28:	e59f3260 	ldr	r3, [pc, #608]	; be90 <staff_nrf_init+0xab0>
    bc2c:	e58d30ec 	str	r3, [sp, #236]	; 0xec
    bc30:	e59f325c 	ldr	r3, [pc, #604]	; be94 <staff_nrf_init+0xab4>
    bc34:	e58d30f0 	str	r3, [sp, #240]	; 0xf0
    bc38:	e3a030b7 	mov	r3, #183, 0	; 0xb7
    bc3c:	e58d30f4 	str	r3, [sp, #244]	; 0xf4
    bc40:	e3a03000 	mov	r3, #0, 0
    bc44:	e58d3004 	str	r3, [sp, #4]
    bc48:	e3a0301d 	mov	r3, #29, 0
    bc4c:	e58d3000 	str	r3, [sp]
    bc50:	e1a03004 	mov	r3, r4
    bc54:	e28d20f8 	add	r2, sp, #248, 0	; 0xf8
    bc58:	e9120007 	ldmdb	r2, {r0, r1, r2}
    bc5c:	ebfff19b 	bl	82d0 <nrf_put8_chk_helper>
    bc60:	e1a00004 	mov	r0, r4
    bc64:	ebfff2d9 	bl	87d0 <nrf_tx_flush>
    bc68:	e1a00004 	mov	r0, r4
    bc6c:	ebfff2ed 	bl	8828 <nrf_rx_flush>
    bc70:	e3a02004 	mov	r2, #4, 0
    bc74:	e3a01017 	mov	r1, #23, 0
    bc78:	e1a00004 	mov	r0, r4
    bc7c:	ebfff28c 	bl	86b4 <nrf_bit_isset>
    bc80:	e3500000 	cmp	r0, #0, 0
    bc84:	0a00006a 	beq	be34 <staff_nrf_init+0xa54>
    bc88:	e3a02000 	mov	r2, #0, 0
    bc8c:	e3a01017 	mov	r1, #23, 0
    bc90:	e1a00004 	mov	r0, r4
    bc94:	ebfff286 	bl	86b4 <nrf_bit_isset>
    bc98:	e3500000 	cmp	r0, #0, 0
    bc9c:	0a00006c 	beq	be54 <staff_nrf_init+0xa74>
    bca0:	e3a02002 	mov	r2, #2, 0
    bca4:	e3a01000 	mov	r1, #0, 0
    bca8:	e1a00004 	mov	r0, r4
    bcac:	ebfff211 	bl	84f8 <nrf_or8>
    bcb0:	e3a00002 	mov	r0, #2, 0
    bcb4:	eb000616 	bl	d514 <delay_ms>
    bcb8:	e1a00004 	mov	r0, r4
    bcbc:	ebfffd71 	bl	b288 <nrf_rx_mode>
    bcc0:	e59f3218 	ldr	r3, [pc, #536]	; bee0 <staff_nrf_init+0xb00>
    bcc4:	e5933000 	ldr	r3, [r3]
    bcc8:	e3530000 	cmp	r3, #0, 0
    bccc:	1a000068 	bne	be74 <staff_nrf_init+0xa94>
    bcd0:	e1a00004 	mov	r0, r4
    bcd4:	e28dd0fc 	add	sp, sp, #252, 0	; 0xfc
    bcd8:	e8bd83f0 	pop	{r4, r5, r6, r7, r8, r9, pc}
    bcdc:	e1a03005 	mov	r3, r5
    bce0:	e3a02000 	mov	r2, #0, 0
    bce4:	e3a0100a 	mov	r1, #10, 0
    bce8:	e1a00004 	mov	r0, r4
    bcec:	ebfff493 	bl	8f40 <nrf_set_addr>
    bcf0:	eaffff44 	b	ba08 <staff_nrf_init+0x628>
    bcf4:	e59f31e8 	ldr	r3, [pc, #488]	; bee4 <staff_nrf_init+0xb04>
    bcf8:	e58d3000 	str	r3, [sp]
    bcfc:	e3a030a0 	mov	r3, #160, 0	; 0xa0
    bd00:	e1a02005 	mov	r2, r5
    bd04:	e1a01006 	mov	r1, r6
    bd08:	e59f0194 	ldr	r0, [pc, #404]	; bea4 <staff_nrf_init+0xac4>
    bd0c:	eb000481 	bl	cf18 <printk>
    bd10:	eb000589 	bl	d33c <clean_reboot>
    bd14:	e59f31cc 	ldr	r3, [pc, #460]	; bee8 <staff_nrf_init+0xb08>
    bd18:	e58d3000 	str	r3, [sp]
    bd1c:	e3a030a2 	mov	r3, #162, 0	; 0xa2
    bd20:	e59f216c 	ldr	r2, [pc, #364]	; be94 <staff_nrf_init+0xab4>
    bd24:	e59f1164 	ldr	r1, [pc, #356]	; be90 <staff_nrf_init+0xab0>
    bd28:	e59f0174 	ldr	r0, [pc, #372]	; bea4 <staff_nrf_init+0xac4>
    bd2c:	eb000479 	bl	cf18 <printk>
    bd30:	eb000581 	bl	d33c <clean_reboot>
    bd34:	e59f31b0 	ldr	r3, [pc, #432]	; beec <staff_nrf_init+0xb0c>
    bd38:	e58d3000 	str	r3, [sp]
    bd3c:	e3a030a3 	mov	r3, #163, 0	; 0xa3
    bd40:	e59f214c 	ldr	r2, [pc, #332]	; be94 <staff_nrf_init+0xab4>
    bd44:	e59f1144 	ldr	r1, [pc, #324]	; be90 <staff_nrf_init+0xab0>
    bd48:	e59f0154 	ldr	r0, [pc, #340]	; bea4 <staff_nrf_init+0xac4>
    bd4c:	eb000471 	bl	cf18 <printk>
    bd50:	eb000579 	bl	d33c <clean_reboot>
    bd54:	e59f3194 	ldr	r3, [pc, #404]	; bef0 <staff_nrf_init+0xb10>
    bd58:	e58d3000 	str	r3, [sp]
    bd5c:	e3a030a4 	mov	r3, #164, 0	; 0xa4
    bd60:	e59f212c 	ldr	r2, [pc, #300]	; be94 <staff_nrf_init+0xab4>
    bd64:	e59f1124 	ldr	r1, [pc, #292]	; be90 <staff_nrf_init+0xab0>
    bd68:	e59f0134 	ldr	r0, [pc, #308]	; bea4 <staff_nrf_init+0xac4>
    bd6c:	eb000469 	bl	cf18 <printk>
    bd70:	eb000571 	bl	d33c <clean_reboot>
    bd74:	e59f3178 	ldr	r3, [pc, #376]	; bef4 <staff_nrf_init+0xb14>
    bd78:	e58d3000 	str	r3, [sp]
    bd7c:	e3a030a5 	mov	r3, #165, 0	; 0xa5
    bd80:	e59f210c 	ldr	r2, [pc, #268]	; be94 <staff_nrf_init+0xab4>
    bd84:	e59f1104 	ldr	r1, [pc, #260]	; be90 <staff_nrf_init+0xab0>
    bd88:	e59f0114 	ldr	r0, [pc, #276]	; bea4 <staff_nrf_init+0xac4>
    bd8c:	eb000461 	bl	cf18 <printk>
    bd90:	eb000569 	bl	d33c <clean_reboot>
    bd94:	e59f315c 	ldr	r3, [pc, #348]	; bef8 <staff_nrf_init+0xb18>
    bd98:	e58d3000 	str	r3, [sp]
    bd9c:	e3a030a7 	mov	r3, #167, 0	; 0xa7
    bda0:	e59f20ec 	ldr	r2, [pc, #236]	; be94 <staff_nrf_init+0xab4>
    bda4:	e59f10e4 	ldr	r1, [pc, #228]	; be90 <staff_nrf_init+0xab0>
    bda8:	e59f00f4 	ldr	r0, [pc, #244]	; bea4 <staff_nrf_init+0xac4>
    bdac:	eb000459 	bl	cf18 <printk>
    bdb0:	eb000561 	bl	d33c <clean_reboot>
    bdb4:	e59f3140 	ldr	r3, [pc, #320]	; befc <staff_nrf_init+0xb1c>
    bdb8:	e58d3000 	str	r3, [sp]
    bdbc:	e3a030a8 	mov	r3, #168, 0	; 0xa8
    bdc0:	e59f20cc 	ldr	r2, [pc, #204]	; be94 <staff_nrf_init+0xab4>
    bdc4:	e59f10c4 	ldr	r1, [pc, #196]	; be90 <staff_nrf_init+0xab0>
    bdc8:	e59f00d4 	ldr	r0, [pc, #212]	; bea4 <staff_nrf_init+0xac4>
    bdcc:	eb000451 	bl	cf18 <printk>
    bdd0:	eb000559 	bl	d33c <clean_reboot>
    bdd4:	e59f3124 	ldr	r3, [pc, #292]	; bf00 <staff_nrf_init+0xb20>
    bdd8:	e58d3000 	str	r3, [sp]
    bddc:	e3a030a9 	mov	r3, #169, 0	; 0xa9
    bde0:	e59f20ac 	ldr	r2, [pc, #172]	; be94 <staff_nrf_init+0xab4>
    bde4:	e59f10a4 	ldr	r1, [pc, #164]	; be90 <staff_nrf_init+0xab0>
    bde8:	e59f00b4 	ldr	r0, [pc, #180]	; bea4 <staff_nrf_init+0xac4>
    bdec:	eb000449 	bl	cf18 <printk>
    bdf0:	eb000551 	bl	d33c <clean_reboot>
    bdf4:	e59f3108 	ldr	r3, [pc, #264]	; bf04 <staff_nrf_init+0xb24>
    bdf8:	e58d3000 	str	r3, [sp]
    bdfc:	e3a030aa 	mov	r3, #170, 0	; 0xaa
    be00:	e59f208c 	ldr	r2, [pc, #140]	; be94 <staff_nrf_init+0xab4>
    be04:	e59f1084 	ldr	r1, [pc, #132]	; be90 <staff_nrf_init+0xab0>
    be08:	e59f0094 	ldr	r0, [pc, #148]	; bea4 <staff_nrf_init+0xac4>
    be0c:	eb000441 	bl	cf18 <printk>
    be10:	eb000549 	bl	d33c <clean_reboot>
    be14:	e59f30ec 	ldr	r3, [pc, #236]	; bf08 <staff_nrf_init+0xb28>
    be18:	e58d3000 	str	r3, [sp]
    be1c:	e3a030b4 	mov	r3, #180, 0	; 0xb4
    be20:	e59f206c 	ldr	r2, [pc, #108]	; be94 <staff_nrf_init+0xab4>
    be24:	e59f1064 	ldr	r1, [pc, #100]	; be90 <staff_nrf_init+0xab0>
    be28:	e59f0074 	ldr	r0, [pc, #116]	; bea4 <staff_nrf_init+0xac4>
    be2c:	eb000439 	bl	cf18 <printk>
    be30:	eb000541 	bl	d33c <clean_reboot>
    be34:	e59f30b0 	ldr	r3, [pc, #176]	; beec <staff_nrf_init+0xb0c>
    be38:	e58d3000 	str	r3, [sp]
    be3c:	e3a030c1 	mov	r3, #193, 0	; 0xc1
    be40:	e59f204c 	ldr	r2, [pc, #76]	; be94 <staff_nrf_init+0xab4>
    be44:	e59f1044 	ldr	r1, [pc, #68]	; be90 <staff_nrf_init+0xab0>
    be48:	e59f0054 	ldr	r0, [pc, #84]	; bea4 <staff_nrf_init+0xac4>
    be4c:	eb000431 	bl	cf18 <printk>
    be50:	eb000539 	bl	d33c <clean_reboot>
    be54:	e59f3098 	ldr	r3, [pc, #152]	; bef4 <staff_nrf_init+0xb14>
    be58:	e58d3000 	str	r3, [sp]
    be5c:	e3a030c2 	mov	r3, #194, 0	; 0xc2
    be60:	e59f202c 	ldr	r2, [pc, #44]	; be94 <staff_nrf_init+0xab4>
    be64:	e59f1024 	ldr	r1, [pc, #36]	; be90 <staff_nrf_init+0xab0>
    be68:	e59f0034 	ldr	r0, [pc, #52]	; bea4 <staff_nrf_init+0xac4>
    be6c:	eb000429 	bl	cf18 <printk>
    be70:	eb000531 	bl	d33c <clean_reboot>
    be74:	e1a01004 	mov	r1, r4
    be78:	e59f008c 	ldr	r0, [pc, #140]	; bf0c <staff_nrf_init+0xb2c>
    be7c:	ebfff290 	bl	88c4 <nrf_dump>
    be80:	eaffff92 	b	bcd0 <staff_nrf_init+0x8f0>
    be84:	00002058 	.word	0x00002058
    be88:	00002014 	.word	0x00002014
    be8c:	12345678 	.word	0x12345678
    be90:	0000e8fc 	.word	0x0000e8fc
    be94:	0000ecf4 	.word	0x0000ecf4
    be98:	0000e424 	.word	0x0000e424
    be9c:	0000ecec 	.word	0x0000ecec
    bea0:	0000e934 	.word	0x0000e934
    bea4:	0000dbd8 	.word	0x0000dbd8
    bea8:	0000e430 	.word	0x0000e430
    beac:	0000e43c 	.word	0x0000e43c
    beb0:	0000e450 	.word	0x0000e450
    beb4:	0000e478 	.word	0x0000e478
    beb8:	0000e48c 	.word	0x0000e48c
    bebc:	0000e4a8 	.word	0x0000e4a8
    bec0:	0000e4c4 	.word	0x0000e4c4
    bec4:	0000e514 	.word	0x0000e514
    bec8:	0000e4e0 	.word	0x0000e4e0
    becc:	0000e4fc 	.word	0x0000e4fc
    bed0:	0000dce0 	.word	0x0000dce0
    bed4:	0000ed04 	.word	0x0000ed04
    bed8:	0000e96c 	.word	0x0000e96c
    bedc:	0000e9a8 	.word	0x0000e9a8
    bee0:	0000f0fc 	.word	0x0000f0fc
    bee4:	0000e9c4 	.word	0x0000e9c4
    bee8:	0000e9ec 	.word	0x0000e9ec
    beec:	0000e550 	.word	0x0000e550
    bef0:	0000ea04 	.word	0x0000ea04
    bef4:	0000e568 	.word	0x0000e568
    bef8:	0000ea1c 	.word	0x0000ea1c
    befc:	0000e65c 	.word	0x0000e65c
    bf00:	0000ea30 	.word	0x0000ea30
    bf04:	0000ea54 	.word	0x0000ea54
    bf08:	0000ea6c 	.word	0x0000ea6c
    bf0c:	0000ea88 	.word	0x0000ea88

0000bf10 <staff_nrf_get_pkts>:
    bf10:	e92d40f0 	push	{r4, r5, r6, r7, lr}
    bf14:	e24dd02c 	sub	sp, sp, #44, 0	; 0x2c
    bf18:	e1a06000 	mov	r6, r0
    bf1c:	e3a01000 	mov	r1, #0, 0
    bf20:	ebfff0c0 	bl	8228 <nrf_get8>
    bf24:	e350007f 	cmp	r0, #127, 0	; 0x7f
    bf28:	1a000005 	bne	bf44 <staff_nrf_get_pkts+0x34>
    bf2c:	e1a00006 	mov	r0, r6
    bf30:	ebfffc57 	bl	b094 <nrf_rx_has_packet>
    bf34:	e3500000 	cmp	r0, #0, 0
    bf38:	0a00009c 	beq	c1b0 <staff_nrf_get_pkts+0x2a0>
    bf3c:	e3a07000 	mov	r7, #0, 0
    bf40:	ea00006d 	b	c0fc <staff_nrf_get_pkts+0x1ec>
    bf44:	e1a01006 	mov	r1, r6
    bf48:	e59f0268 	ldr	r0, [pc, #616]	; c1b8 <staff_nrf_get_pkts+0x2a8>
    bf4c:	ebfff25c 	bl	88c4 <nrf_dump>
    bf50:	e59f3264 	ldr	r3, [pc, #612]	; c1bc <staff_nrf_get_pkts+0x2ac>
    bf54:	e58d3000 	str	r3, [sp]
    bf58:	e59f3260 	ldr	r3, [pc, #608]	; c1c0 <staff_nrf_get_pkts+0x2b0>
    bf5c:	e59f2260 	ldr	r2, [pc, #608]	; c1c4 <staff_nrf_get_pkts+0x2b4>
    bf60:	e59f1260 	ldr	r1, [pc, #608]	; c1c8 <staff_nrf_get_pkts+0x2b8>
    bf64:	e59f0260 	ldr	r0, [pc, #608]	; c1cc <staff_nrf_get_pkts+0x2bc>
    bf68:	eb0003ea 	bl	cf18 <printk>
    bf6c:	eb0004f2 	bl	d33c <clean_reboot>
    bf70:	e58d5000 	str	r5, [sp]
    bf74:	e59f3254 	ldr	r3, [pc, #596]	; c1d0 <staff_nrf_get_pkts+0x2c0>
    bf78:	e59f2244 	ldr	r2, [pc, #580]	; c1c4 <staff_nrf_get_pkts+0x2b4>
    bf7c:	e59f1244 	ldr	r1, [pc, #580]	; c1c8 <staff_nrf_get_pkts+0x2b8>
    bf80:	e59f024c 	ldr	r0, [pc, #588]	; c1d4 <staff_nrf_get_pkts+0x2c4>
    bf84:	eb0003e3 	bl	cf18 <printk>
    bf88:	eb0004eb 	bl	d33c <clean_reboot>
    bf8c:	e1a01006 	mov	r1, r6
    bf90:	e59f0220 	ldr	r0, [pc, #544]	; c1b8 <staff_nrf_get_pkts+0x2a8>
    bf94:	ebfff24a 	bl	88c4 <nrf_dump>
    bf98:	e59f3238 	ldr	r3, [pc, #568]	; c1d8 <staff_nrf_get_pkts+0x2c8>
    bf9c:	e58d3000 	str	r3, [sp]
    bfa0:	e59f3234 	ldr	r3, [pc, #564]	; c1dc <staff_nrf_get_pkts+0x2cc>
    bfa4:	e59f2218 	ldr	r2, [pc, #536]	; c1c4 <staff_nrf_get_pkts+0x2b4>
    bfa8:	e59f1218 	ldr	r1, [pc, #536]	; c1c8 <staff_nrf_get_pkts+0x2b8>
    bfac:	e59f0218 	ldr	r0, [pc, #536]	; c1cc <staff_nrf_get_pkts+0x2bc>
    bfb0:	eb0003d8 	bl	cf18 <printk>
    bfb4:	eb0004e0 	bl	d33c <clean_reboot>
    bfb8:	e59f3220 	ldr	r3, [pc, #544]	; c1e0 <staff_nrf_get_pkts+0x2d0>
    bfbc:	e58d3000 	str	r3, [sp]
    bfc0:	e3a030a2 	mov	r3, #162, 0	; 0xa2
    bfc4:	e59f2218 	ldr	r2, [pc, #536]	; c1e4 <staff_nrf_get_pkts+0x2d4>
    bfc8:	e59f1218 	ldr	r1, [pc, #536]	; c1e8 <staff_nrf_get_pkts+0x2d8>
    bfcc:	e59f0218 	ldr	r0, [pc, #536]	; c1ec <staff_nrf_get_pkts+0x2dc>
    bfd0:	eb0003d0 	bl	cf18 <printk>
    bfd4:	eb0004d8 	bl	d33c <clean_reboot>
    bfd8:	e7c1000c 	strb	r0, [r1, ip]
    bfdc:	e28c3001 	add	r3, ip, #1, 0
    bfe0:	e1a03983 	lsl	r3, r3, #19
    bfe4:	e1a039a3 	lsr	r3, r3, #19
    bfe8:	e2810a02 	add	r0, r1, #8192	; 0x2000
    bfec:	e5803004 	str	r3, [r0, #4]
    bff0:	e3a03001 	mov	r3, #1, 0
    bff4:	e3530000 	cmp	r3, #0, 0
    bff8:	0a000020 	beq	c080 <staff_nrf_get_pkts+0x170>
    bffc:	e2822001 	add	r2, r2, #1, 0
    c000:	e1540002 	cmp	r4, r2
    c004:	9a000023 	bls	c098 <staff_nrf_get_pkts+0x188>
    c008:	e28d3008 	add	r3, sp, #8, 0
    c00c:	e7d30002 	ldrb	r0, [r3, r2]
    c010:	e281ca02 	add	ip, r1, #8192	; 0x2000
    c014:	e59c3004 	ldr	r3, [ip, #4]
    c018:	e2833001 	add	r3, r3, #1, 0
    c01c:	e1a03983 	lsl	r3, r3, #19
    c020:	e1a039a3 	lsr	r3, r3, #19
    c024:	e59cc008 	ldr	ip, [ip, #8]
    c028:	e153000c 	cmp	r3, ip
    c02c:	0a000011 	beq	c078 <staff_nrf_get_pkts+0x168>
    c030:	e281ea02 	add	lr, r1, #8192	; 0x2000
    c034:	e59ec004 	ldr	ip, [lr, #4]
    c038:	e59e3004 	ldr	r3, [lr, #4]
    c03c:	e59ee008 	ldr	lr, [lr, #8]
    c040:	e043300e 	sub	r3, r3, lr
    c044:	e1e03003 	mvn	r3, r3
    c048:	e1a03983 	lsl	r3, r3, #19
    c04c:	e1a039a3 	lsr	r3, r3, #19
    c050:	e3530000 	cmp	r3, #0, 0
    c054:	1affffdf 	bne	bfd8 <staff_nrf_get_pkts+0xc8>
    c058:	e59f3190 	ldr	r3, [pc, #400]	; c1f0 <staff_nrf_get_pkts+0x2e0>
    c05c:	e58d3000 	str	r3, [sp]
    c060:	e3a0306b 	mov	r3, #107, 0	; 0x6b
    c064:	e59f2188 	ldr	r2, [pc, #392]	; c1f4 <staff_nrf_get_pkts+0x2e4>
    c068:	e59f1178 	ldr	r1, [pc, #376]	; c1e8 <staff_nrf_get_pkts+0x2d8>
    c06c:	e59f0178 	ldr	r0, [pc, #376]	; c1ec <staff_nrf_get_pkts+0x2dc>
    c070:	eb0003a8 	bl	cf18 <printk>
    c074:	eb0004b0 	bl	d33c <clean_reboot>
    c078:	e3a03000 	mov	r3, #0, 0
    c07c:	eaffffdc 	b	bff4 <staff_nrf_get_pkts+0xe4>
    c080:	e3a030ab 	mov	r3, #171, 0	; 0xab
    c084:	e59f2158 	ldr	r2, [pc, #344]	; c1e4 <staff_nrf_get_pkts+0x2d4>
    c088:	e59f1158 	ldr	r1, [pc, #344]	; c1e8 <staff_nrf_get_pkts+0x2d8>
    c08c:	e59f0164 	ldr	r0, [pc, #356]	; c1f8 <staff_nrf_get_pkts+0x2e8>
    c090:	eb0003a0 	bl	cf18 <printk>
    c094:	eb0004a8 	bl	d33c <clean_reboot>
    c098:	e3a03001 	mov	r3, #1, 0
    c09c:	e3530000 	cmp	r3, #0, 0
    c0a0:	0a000036 	beq	c180 <staff_nrf_get_pkts+0x270>
    c0a4:	e2863a02 	add	r3, r6, #8192	; 0x2000
    c0a8:	e5932050 	ldr	r2, [r3, #80]	; 0x50
    c0ac:	e2822001 	add	r2, r2, #1, 0
    c0b0:	e5832050 	str	r2, [r3, #80]	; 0x50
    c0b4:	e5932054 	ldr	r2, [r3, #84]	; 0x54
    c0b8:	e0824004 	add	r4, r2, r4
    c0bc:	e5834054 	str	r4, [r3, #84]	; 0x54
    c0c0:	e3a02040 	mov	r2, #64, 0	; 0x40
    c0c4:	e3a01007 	mov	r1, #7, 0
    c0c8:	e1a00006 	mov	r0, r6
    c0cc:	ebfff06a 	bl	827c <nrf_put8>
    c0d0:	e59f3124 	ldr	r3, [pc, #292]	; c1fc <staff_nrf_get_pkts+0x2ec>
    c0d4:	e5933000 	ldr	r3, [r3]
    c0d8:	e3530000 	cmp	r3, #0, 0
    c0dc:	1a00002e 	bne	c19c <staff_nrf_get_pkts+0x28c>
    c0e0:	e2877001 	add	r7, r7, #1, 0
    c0e4:	e3a02000 	mov	r2, #0, 0
    c0e8:	e3a01017 	mov	r1, #23, 0
    c0ec:	e1a00006 	mov	r0, r6
    c0f0:	ebfff16f 	bl	86b4 <nrf_bit_isset>
    c0f4:	e3500000 	cmp	r0, #0, 0
    c0f8:	1a00002b 	bne	c1ac <staff_nrf_get_pkts+0x29c>
    c0fc:	e3a01007 	mov	r1, #7, 0
    c100:	e1a00006 	mov	r0, r6
    c104:	ebfff047 	bl	8228 <nrf_get8>
    c108:	e1a050a0 	lsr	r5, r0, #1
    c10c:	e2055007 	and	r5, r5, #7, 0
    c110:	e3550007 	cmp	r5, #7, 0
    c114:	0affff95 	beq	bf70 <staff_nrf_get_pkts+0x60>
    c118:	e5d64003 	ldrb	r4, [r6, #3]
    c11c:	e1a03004 	mov	r3, r4
    c120:	e28d2008 	add	r2, sp, #8, 0
    c124:	e3a01061 	mov	r1, #97, 0	; 0x61
    c128:	e1a00006 	mov	r0, r6
    c12c:	ebfff089 	bl	8358 <nrf_getn>
    c130:	e1a000a0 	lsr	r0, r0, #1
    c134:	e2000007 	and	r0, r0, #7, 0
    c138:	e1550000 	cmp	r5, r0
    c13c:	1affff92 	bne	bf8c <staff_nrf_get_pkts+0x7c>
    c140:	e2861024 	add	r1, r6, #36, 0	; 0x24
    c144:	e3540000 	cmp	r4, #0, 0
    c148:	0affff9a 	beq	bfb8 <staff_nrf_get_pkts+0xa8>
    c14c:	e2812a02 	add	r2, r1, #8192	; 0x2000
    c150:	e5923004 	ldr	r3, [r2, #4]
    c154:	e5922008 	ldr	r2, [r2, #8]
    c158:	e0433002 	sub	r3, r3, r2
    c15c:	e1e03003 	mvn	r3, r3
    c160:	e1a03983 	lsl	r3, r3, #19
    c164:	e1a039a3 	lsr	r3, r3, #19
    c168:	e1540003 	cmp	r4, r3
    c16c:	8a000001 	bhi	c178 <staff_nrf_get_pkts+0x268>
    c170:	e3a02000 	mov	r2, #0, 0
    c174:	eaffffa1 	b	c000 <staff_nrf_get_pkts+0xf0>
    c178:	e3a03000 	mov	r3, #0, 0
    c17c:	eaffffc6 	b	c09c <staff_nrf_get_pkts+0x18c>
    c180:	e58d5000 	str	r5, [sp]
    c184:	e59f3074 	ldr	r3, [pc, #116]	; c200 <staff_nrf_get_pkts+0x2f0>
    c188:	e59f2034 	ldr	r2, [pc, #52]	; c1c4 <staff_nrf_get_pkts+0x2b4>
    c18c:	e59f1034 	ldr	r1, [pc, #52]	; c1c8 <staff_nrf_get_pkts+0x2b8>
    c190:	e59f006c 	ldr	r0, [pc, #108]	; c204 <staff_nrf_get_pkts+0x2f4>
    c194:	eb00035f 	bl	cf18 <printk>
    c198:	eb000467 	bl	d33c <clean_reboot>
    c19c:	e1a01005 	mov	r1, r5
    c1a0:	e59f0060 	ldr	r0, [pc, #96]	; c208 <staff_nrf_get_pkts+0x2f8>
    c1a4:	eb00035b 	bl	cf18 <printk>
    c1a8:	eaffffcc 	b	c0e0 <staff_nrf_get_pkts+0x1d0>
    c1ac:	e1a00007 	mov	r0, r7
    c1b0:	e28dd02c 	add	sp, sp, #44, 0	; 0x2c
    c1b4:	e8bd80f0 	pop	{r4, r5, r6, r7, pc}
    c1b8:	0000e0ec 	.word	0x0000e0ec
    c1bc:	0000e580 	.word	0x0000e580
    c1c0:	00000129 	.word	0x00000129
    c1c4:	0000ed10 	.word	0x0000ed10
    c1c8:	0000e8fc 	.word	0x0000e8fc
    c1cc:	0000e100 	.word	0x0000e100
    c1d0:	00000141 	.word	0x00000141
    c1d4:	0000ea98 	.word	0x0000ea98
    c1d8:	0000eac8 	.word	0x0000eac8
    c1dc:	0000014e 	.word	0x0000014e
    c1e0:	0000e5d4 	.word	0x0000e5d4
    c1e4:	0000ed24 	.word	0x0000ed24
    c1e8:	0000e934 	.word	0x0000e934
    c1ec:	0000dbd8 	.word	0x0000dbd8
    c1f0:	0000e5d8 	.word	0x0000e5d8
    c1f4:	0000ed30 	.word	0x0000ed30
    c1f8:	0000e5ec 	.word	0x0000e5ec
    c1fc:	0000f0fc 	.word	0x0000f0fc
    c200:	00000152 	.word	0x00000152
    c204:	0000eae4 	.word	0x0000eae4
    c208:	0000eb24 	.word	0x0000eb24

0000c20c <staff_nrf_tx_send_noack>:
    c20c:	e92d40f0 	push	{r4, r5, r6, r7, lr}
    c210:	e24dd00c 	sub	sp, sp, #12, 0
    c214:	e1a04000 	mov	r4, r0
    c218:	e1a05001 	mov	r5, r1
    c21c:	e1a07002 	mov	r7, r2
    c220:	e1a06003 	mov	r6, r3
    c224:	e3a01000 	mov	r1, #0, 0
    c228:	ebffeffe 	bl	8228 <nrf_get8>
    c22c:	e350007f 	cmp	r0, #127, 0	; 0x7f
    c230:	1a00004a 	bne	c360 <staff_nrf_tx_send_noack+0x154>
    c234:	e3a01002 	mov	r1, #2, 0
    c238:	e1a00004 	mov	r0, r4
    c23c:	ebffeff9 	bl	8228 <nrf_get8>
    c240:	e3100001 	tst	r0, #1, 0
    c244:	1a000050 	bne	c38c <staff_nrf_tx_send_noack+0x180>
    c248:	e3a01002 	mov	r1, #2, 0
    c24c:	e1a00004 	mov	r0, r4
    c250:	ebffeff4 	bl	8228 <nrf_get8>
    c254:	e3100002 	tst	r0, #2, 0
    c258:	0a000056 	beq	c3b8 <staff_nrf_tx_send_noack+0x1ac>
    c25c:	e3a01001 	mov	r1, #1, 0
    c260:	e1a00004 	mov	r0, r4
    c264:	ebffefef 	bl	8228 <nrf_get8>
    c268:	e3100002 	tst	r0, #2, 0
    c26c:	1a00005c 	bne	c3e4 <staff_nrf_tx_send_noack+0x1d8>
    c270:	e3a02004 	mov	r2, #4, 0
    c274:	e3a01017 	mov	r1, #23, 0
    c278:	e1a00004 	mov	r0, r4
    c27c:	ebfff10c 	bl	86b4 <nrf_bit_isset>
    c280:	e3500000 	cmp	r0, #0, 0
    c284:	0a000061 	beq	c410 <staff_nrf_tx_send_noack+0x204>
    c288:	e1a00004 	mov	r0, r4
    c28c:	ebffff1f 	bl	bf10 <staff_nrf_get_pkts>
    c290:	e3500000 	cmp	r0, #0, 0
    c294:	1afffffb 	bne	c288 <staff_nrf_tx_send_noack+0x7c>
    c298:	e59f3214 	ldr	r3, [pc, #532]	; c4b4 <staff_nrf_tx_send_noack+0x2a8>
    c29c:	e5933000 	ldr	r3, [r3]
    c2a0:	e3530000 	cmp	r3, #0, 0
    c2a4:	1a000064 	bne	c43c <staff_nrf_tx_send_noack+0x230>
    c2a8:	e3a03003 	mov	r3, #3, 0
    c2ac:	e1a02005 	mov	r2, r5
    c2b0:	e3a01010 	mov	r1, #16, 0
    c2b4:	e1a00004 	mov	r0, r4
    c2b8:	ebfff320 	bl	8f40 <nrf_set_addr>
    c2bc:	e3a02003 	mov	r2, #3, 0
    c2c0:	e3a01010 	mov	r1, #16, 0
    c2c4:	e1a00004 	mov	r0, r4
    c2c8:	ebfff11c 	bl	8740 <nrf_get_addr>
    c2cc:	e1500005 	cmp	r0, r5
    c2d0:	1a00005e 	bne	c450 <staff_nrf_tx_send_noack+0x244>
    c2d4:	e59f31d8 	ldr	r3, [pc, #472]	; c4b4 <staff_nrf_tx_send_noack+0x2a8>
    c2d8:	e5933000 	ldr	r3, [r3]
    c2dc:	e3530000 	cmp	r3, #0, 0
    c2e0:	1a000065 	bne	c47c <staff_nrf_tx_send_noack+0x270>
    c2e4:	e1a02006 	mov	r2, r6
    c2e8:	e1a01007 	mov	r1, r7
    c2ec:	e1a00004 	mov	r0, r4
    c2f0:	ebfffb6e 	bl	b0b0 <do_tx>
    c2f4:	e1a00004 	mov	r0, r4
    c2f8:	ebfffb7b 	bl	b0ec <nrf_tx_mode>
    c2fc:	e3a02005 	mov	r2, #5, 0
    c300:	e3a01007 	mov	r1, #7, 0
    c304:	e1a00004 	mov	r0, r4
    c308:	ebfff0e9 	bl	86b4 <nrf_bit_isset>
    c30c:	e3500000 	cmp	r0, #0, 0
    c310:	0afffff9 	beq	c2fc <staff_nrf_tx_send_noack+0xf0>
    c314:	e3a02004 	mov	r2, #4, 0
    c318:	e3a01017 	mov	r1, #23, 0
    c31c:	e1a00004 	mov	r0, r4
    c320:	ebfff0e3 	bl	86b4 <nrf_bit_isset>
    c324:	e3500000 	cmp	r0, #0, 0
    c328:	0a000056 	beq	c488 <staff_nrf_tx_send_noack+0x27c>
    c32c:	e3a02020 	mov	r2, #32, 0
    c330:	e3a01007 	mov	r1, #7, 0
    c334:	e1a00004 	mov	r0, r4
    c338:	ebffefcf 	bl	827c <nrf_put8>
    c33c:	e59f3170 	ldr	r3, [pc, #368]	; c4b4 <staff_nrf_tx_send_noack+0x2a8>
    c340:	e5933000 	ldr	r3, [r3]
    c344:	e3530000 	cmp	r3, #0, 0
    c348:	1a000056 	bne	c4a8 <staff_nrf_tx_send_noack+0x29c>
    c34c:	e1a00004 	mov	r0, r4
    c350:	ebfffbcc 	bl	b288 <nrf_rx_mode>
    c354:	e1a00006 	mov	r0, r6
    c358:	e28dd00c 	add	sp, sp, #12, 0
    c35c:	e8bd80f0 	pop	{r4, r5, r6, r7, pc}
    c360:	e1a01004 	mov	r1, r4
    c364:	e59f014c 	ldr	r0, [pc, #332]	; c4b8 <staff_nrf_tx_send_noack+0x2ac>
    c368:	ebfff155 	bl	88c4 <nrf_dump>
    c36c:	e59f3148 	ldr	r3, [pc, #328]	; c4bc <staff_nrf_tx_send_noack+0x2b0>
    c370:	e58d3000 	str	r3, [sp]
    c374:	e59f3144 	ldr	r3, [pc, #324]	; c4c0 <staff_nrf_tx_send_noack+0x2b4>
    c378:	e59f2144 	ldr	r2, [pc, #324]	; c4c4 <staff_nrf_tx_send_noack+0x2b8>
    c37c:	e59f1144 	ldr	r1, [pc, #324]	; c4c8 <staff_nrf_tx_send_noack+0x2bc>
    c380:	e59f0144 	ldr	r0, [pc, #324]	; c4cc <staff_nrf_tx_send_noack+0x2c0>
    c384:	eb0002e3 	bl	cf18 <printk>
    c388:	eb0003eb 	bl	d33c <clean_reboot>
    c38c:	e1a01004 	mov	r1, r4
    c390:	e59f0120 	ldr	r0, [pc, #288]	; c4b8 <staff_nrf_tx_send_noack+0x2ac>
    c394:	ebfff14a 	bl	88c4 <nrf_dump>
    c398:	e59f3130 	ldr	r3, [pc, #304]	; c4d0 <staff_nrf_tx_send_noack+0x2c4>
    c39c:	e58d3000 	str	r3, [sp]
    c3a0:	e59f312c 	ldr	r3, [pc, #300]	; c4d4 <staff_nrf_tx_send_noack+0x2c8>
    c3a4:	e59f2118 	ldr	r2, [pc, #280]	; c4c4 <staff_nrf_tx_send_noack+0x2b8>
    c3a8:	e59f1118 	ldr	r1, [pc, #280]	; c4c8 <staff_nrf_tx_send_noack+0x2bc>
    c3ac:	e59f0118 	ldr	r0, [pc, #280]	; c4cc <staff_nrf_tx_send_noack+0x2c0>
    c3b0:	eb0002d8 	bl	cf18 <printk>
    c3b4:	eb0003e0 	bl	d33c <clean_reboot>
    c3b8:	e1a01004 	mov	r1, r4
    c3bc:	e59f00f4 	ldr	r0, [pc, #244]	; c4b8 <staff_nrf_tx_send_noack+0x2ac>
    c3c0:	ebfff13f 	bl	88c4 <nrf_dump>
    c3c4:	e59f310c 	ldr	r3, [pc, #268]	; c4d8 <staff_nrf_tx_send_noack+0x2cc>
    c3c8:	e58d3000 	str	r3, [sp]
    c3cc:	e59f3108 	ldr	r3, [pc, #264]	; c4dc <staff_nrf_tx_send_noack+0x2d0>
    c3d0:	e59f20ec 	ldr	r2, [pc, #236]	; c4c4 <staff_nrf_tx_send_noack+0x2b8>
    c3d4:	e59f10ec 	ldr	r1, [pc, #236]	; c4c8 <staff_nrf_tx_send_noack+0x2bc>
    c3d8:	e59f00ec 	ldr	r0, [pc, #236]	; c4cc <staff_nrf_tx_send_noack+0x2c0>
    c3dc:	eb0002cd 	bl	cf18 <printk>
    c3e0:	eb0003d5 	bl	d33c <clean_reboot>
    c3e4:	e1a01004 	mov	r1, r4
    c3e8:	e59f00c8 	ldr	r0, [pc, #200]	; c4b8 <staff_nrf_tx_send_noack+0x2ac>
    c3ec:	ebfff134 	bl	88c4 <nrf_dump>
    c3f0:	e59f30e8 	ldr	r3, [pc, #232]	; c4e0 <staff_nrf_tx_send_noack+0x2d4>
    c3f4:	e58d3000 	str	r3, [sp]
    c3f8:	e3a03e17 	mov	r3, #368	; 0x170
    c3fc:	e59f20c0 	ldr	r2, [pc, #192]	; c4c4 <staff_nrf_tx_send_noack+0x2b8>
    c400:	e59f10c0 	ldr	r1, [pc, #192]	; c4c8 <staff_nrf_tx_send_noack+0x2bc>
    c404:	e59f00c0 	ldr	r0, [pc, #192]	; c4cc <staff_nrf_tx_send_noack+0x2c0>
    c408:	eb0002c2 	bl	cf18 <printk>
    c40c:	eb0003ca 	bl	d33c <clean_reboot>
    c410:	e1a01004 	mov	r1, r4
    c414:	e59f009c 	ldr	r0, [pc, #156]	; c4b8 <staff_nrf_tx_send_noack+0x2ac>
    c418:	ebfff129 	bl	88c4 <nrf_dump>
    c41c:	e59f30c0 	ldr	r3, [pc, #192]	; c4e4 <staff_nrf_tx_send_noack+0x2d8>
    c420:	e58d3000 	str	r3, [sp]
    c424:	e3a03f5d 	mov	r3, #372	; 0x174
    c428:	e59f2094 	ldr	r2, [pc, #148]	; c4c4 <staff_nrf_tx_send_noack+0x2b8>
    c42c:	e59f1094 	ldr	r1, [pc, #148]	; c4c8 <staff_nrf_tx_send_noack+0x2bc>
    c430:	e59f0094 	ldr	r0, [pc, #148]	; c4cc <staff_nrf_tx_send_noack+0x2c0>
    c434:	eb0002b7 	bl	cf18 <printk>
    c438:	eb0003bf 	bl	d33c <clean_reboot>
    c43c:	e3a02003 	mov	r2, #3, 0
    c440:	e1a01005 	mov	r1, r5
    c444:	e59f009c 	ldr	r0, [pc, #156]	; c4e8 <staff_nrf_tx_send_noack+0x2dc>
    c448:	eb0002b2 	bl	cf18 <printk>
    c44c:	eaffff95 	b	c2a8 <staff_nrf_tx_send_noack+0x9c>
    c450:	e1a01004 	mov	r1, r4
    c454:	e59f005c 	ldr	r0, [pc, #92]	; c4b8 <staff_nrf_tx_send_noack+0x2ac>
    c458:	ebfff119 	bl	88c4 <nrf_dump>
    c45c:	e59f3088 	ldr	r3, [pc, #136]	; c4ec <staff_nrf_tx_send_noack+0x2e0>
    c460:	e58d3000 	str	r3, [sp]
    c464:	e59f3084 	ldr	r3, [pc, #132]	; c4f0 <staff_nrf_tx_send_noack+0x2e4>
    c468:	e59f2054 	ldr	r2, [pc, #84]	; c4c4 <staff_nrf_tx_send_noack+0x2b8>
    c46c:	e59f1054 	ldr	r1, [pc, #84]	; c4c8 <staff_nrf_tx_send_noack+0x2bc>
    c470:	e59f0054 	ldr	r0, [pc, #84]	; c4cc <staff_nrf_tx_send_noack+0x2c0>
    c474:	eb0002a7 	bl	cf18 <printk>
    c478:	eb0003af 	bl	d33c <clean_reboot>
    c47c:	e59f0070 	ldr	r0, [pc, #112]	; c4f4 <staff_nrf_tx_send_noack+0x2e8>
    c480:	eb0002a4 	bl	cf18 <printk>
    c484:	eaffff96 	b	c2e4 <staff_nrf_tx_send_noack+0xd8>
    c488:	e59f3054 	ldr	r3, [pc, #84]	; c4e4 <staff_nrf_tx_send_noack+0x2d8>
    c48c:	e58d3000 	str	r3, [sp]
    c490:	e59f3060 	ldr	r3, [pc, #96]	; c4f8 <staff_nrf_tx_send_noack+0x2ec>
    c494:	e59f2028 	ldr	r2, [pc, #40]	; c4c4 <staff_nrf_tx_send_noack+0x2b8>
    c498:	e59f1028 	ldr	r1, [pc, #40]	; c4c8 <staff_nrf_tx_send_noack+0x2bc>
    c49c:	e59f0058 	ldr	r0, [pc, #88]	; c4fc <staff_nrf_tx_send_noack+0x2f0>
    c4a0:	eb00029c 	bl	cf18 <printk>
    c4a4:	eb0003a4 	bl	d33c <clean_reboot>
    c4a8:	e59f0050 	ldr	r0, [pc, #80]	; c500 <staff_nrf_tx_send_noack+0x2f4>
    c4ac:	eb000299 	bl	cf18 <printk>
    c4b0:	eaffffa5 	b	c34c <staff_nrf_tx_send_noack+0x140>
    c4b4:	0000f0fc 	.word	0x0000f0fc
    c4b8:	0000e0ec 	.word	0x0000e0ec
    c4bc:	0000e580 	.word	0x0000e580
    c4c0:	00000169 	.word	0x00000169
    c4c4:	0000ed38 	.word	0x0000ed38
    c4c8:	0000e8fc 	.word	0x0000e8fc
    c4cc:	0000e100 	.word	0x0000e100
    c4d0:	0000e4c4 	.word	0x0000e4c4
    c4d4:	0000016e 	.word	0x0000016e
    c4d8:	0000e48c 	.word	0x0000e48c
    c4dc:	0000016f 	.word	0x0000016f
    c4e0:	0000e4a8 	.word	0x0000e4a8
    c4e4:	0000e550 	.word	0x0000e550
    c4e8:	0000eb44 	.word	0x0000eb44
    c4ec:	0000eb6c 	.word	0x0000eb6c
    c4f0:	00000181 	.word	0x00000181
    c4f4:	0000eba0 	.word	0x0000eba0
    c4f8:	0000018a 	.word	0x0000018a
    c4fc:	0000dbd8 	.word	0x0000dbd8
    c500:	0000ebb4 	.word	0x0000ebb4

0000c504 <staff_nrf_tx_send_ack>:
    c504:	e92d40f0 	push	{r4, r5, r6, r7, lr}
    c508:	e24dd00c 	sub	sp, sp, #12, 0
    c50c:	e1a04000 	mov	r4, r0
    c510:	e1a05001 	mov	r5, r1
    c514:	e1a07002 	mov	r7, r2
    c518:	e1a06003 	mov	r6, r3
    c51c:	e3a01000 	mov	r1, #0, 0
    c520:	ebffef40 	bl	8228 <nrf_get8>
    c524:	e350007f 	cmp	r0, #127, 0	; 0x7f
    c528:	1a000068 	bne	c6d0 <staff_nrf_tx_send_ack+0x1cc>
    c52c:	e1a00004 	mov	r0, r4
    c530:	ebfffe76 	bl	bf10 <staff_nrf_get_pkts>
    c534:	e3500000 	cmp	r0, #0, 0
    c538:	1afffffb 	bne	c52c <staff_nrf_tx_send_ack+0x28>
    c53c:	e3a02004 	mov	r2, #4, 0
    c540:	e3a01007 	mov	r1, #7, 0
    c544:	e1a00004 	mov	r0, r4
    c548:	ebfff059 	bl	86b4 <nrf_bit_isset>
    c54c:	e3500000 	cmp	r0, #0, 0
    c550:	1a000069 	bne	c6fc <staff_nrf_tx_send_ack+0x1f8>
    c554:	e3a02005 	mov	r2, #5, 0
    c558:	e3a01007 	mov	r1, #7, 0
    c55c:	e1a00004 	mov	r0, r4
    c560:	ebfff053 	bl	86b4 <nrf_bit_isset>
    c564:	e3500000 	cmp	r0, #0, 0
    c568:	1a00006e 	bne	c728 <staff_nrf_tx_send_ack+0x224>
    c56c:	e3a01002 	mov	r1, #2, 0
    c570:	e1a00004 	mov	r0, r4
    c574:	ebffef2b 	bl	8228 <nrf_get8>
    c578:	e3100001 	tst	r0, #1, 0
    c57c:	0a000074 	beq	c754 <staff_nrf_tx_send_ack+0x250>
    c580:	e3a01002 	mov	r1, #2, 0
    c584:	e1a00004 	mov	r0, r4
    c588:	ebffef26 	bl	8228 <nrf_get8>
    c58c:	e3100002 	tst	r0, #2, 0
    c590:	0a00007a 	beq	c780 <staff_nrf_tx_send_ack+0x27c>
    c594:	e3a01001 	mov	r1, #1, 0
    c598:	e1a00004 	mov	r0, r4
    c59c:	ebffef21 	bl	8228 <nrf_get8>
    c5a0:	e3100001 	tst	r0, #1, 0
    c5a4:	0a000080 	beq	c7ac <staff_nrf_tx_send_ack+0x2a8>
    c5a8:	e3a01001 	mov	r1, #1, 0
    c5ac:	e1a00004 	mov	r0, r4
    c5b0:	ebffef1c 	bl	8228 <nrf_get8>
    c5b4:	e3100002 	tst	r0, #2, 0
    c5b8:	0a000086 	beq	c7d8 <staff_nrf_tx_send_ack+0x2d4>
    c5bc:	e3a02004 	mov	r2, #4, 0
    c5c0:	e3a01017 	mov	r1, #23, 0
    c5c4:	e1a00004 	mov	r0, r4
    c5c8:	ebfff039 	bl	86b4 <nrf_bit_isset>
    c5cc:	e3500000 	cmp	r0, #0, 0
    c5d0:	0a00008b 	beq	c804 <staff_nrf_tx_send_ack+0x300>
    c5d4:	e3a02005 	mov	r2, #5, 0
    c5d8:	e3a01017 	mov	r1, #23, 0
    c5dc:	e1a00004 	mov	r0, r4
    c5e0:	ebfff033 	bl	86b4 <nrf_bit_isset>
    c5e4:	e3500000 	cmp	r0, #0, 0
    c5e8:	1a000090 	bne	c830 <staff_nrf_tx_send_ack+0x32c>
    c5ec:	e59f33ac 	ldr	r3, [pc, #940]	; c9a0 <staff_nrf_tx_send_ack+0x49c>
    c5f0:	e5933000 	ldr	r3, [r3]
    c5f4:	e3530000 	cmp	r3, #0, 0
    c5f8:	1a000092 	bne	c848 <staff_nrf_tx_send_ack+0x344>
    c5fc:	e3a03003 	mov	r3, #3, 0
    c600:	e1a02005 	mov	r2, r5
    c604:	e3a0100a 	mov	r1, #10, 0
    c608:	e1a00004 	mov	r0, r4
    c60c:	ebfff24b 	bl	8f40 <nrf_set_addr>
    c610:	e3a03003 	mov	r3, #3, 0
    c614:	e1a02005 	mov	r2, r5
    c618:	e3a01010 	mov	r1, #16, 0
    c61c:	e1a00004 	mov	r0, r4
    c620:	ebfff246 	bl	8f40 <nrf_set_addr>
    c624:	e1a02006 	mov	r2, r6
    c628:	e1a01007 	mov	r1, r7
    c62c:	e1a00004 	mov	r0, r4
    c630:	ebfffa9e 	bl	b0b0 <do_tx>
    c634:	e1a00004 	mov	r0, r4
    c638:	ebfffaab 	bl	b0ec <nrf_tx_mode>
    c63c:	e3a02003 	mov	r2, #3, 0
    c640:	e3a01010 	mov	r1, #16, 0
    c644:	e1a00004 	mov	r0, r4
    c648:	ebfff03c 	bl	8740 <nrf_get_addr>
    c64c:	e1a07000 	mov	r7, r0
    c650:	e3a02003 	mov	r2, #3, 0
    c654:	e3a0100a 	mov	r1, #10, 0
    c658:	e1a00004 	mov	r0, r4
    c65c:	ebfff037 	bl	8740 <nrf_get_addr>
    c660:	e1570000 	cmp	r7, r0
    c664:	1a00007c 	bne	c85c <staff_nrf_tx_send_ack+0x358>
    c668:	e1570005 	cmp	r7, r5
    c66c:	1a000082 	bne	c87c <staff_nrf_tx_send_ack+0x378>
    c670:	e3a02005 	mov	r2, #5, 0
    c674:	e3a01007 	mov	r1, #7, 0
    c678:	e1a00004 	mov	r0, r4
    c67c:	ebfff00c 	bl	86b4 <nrf_bit_isset>
    c680:	e3500000 	cmp	r0, #0, 0
    c684:	1a000084 	bne	c89c <staff_nrf_tx_send_ack+0x398>
    c688:	e3a02004 	mov	r2, #4, 0
    c68c:	e3a01007 	mov	r1, #7, 0
    c690:	e1a00004 	mov	r0, r4
    c694:	ebfff006 	bl	86b4 <nrf_bit_isset>
    c698:	e3500000 	cmp	r0, #0, 0
    c69c:	1a0000b0 	bne	c964 <staff_nrf_tx_send_ack+0x460>
    c6a0:	e3a02001 	mov	r2, #1, 0
    c6a4:	e3a01017 	mov	r1, #23, 0
    c6a8:	e1a00004 	mov	r0, r4
    c6ac:	ebfff000 	bl	86b4 <nrf_bit_isset>
    c6b0:	e3500000 	cmp	r0, #0, 0
    c6b4:	0affffed 	beq	c670 <staff_nrf_tx_send_ack+0x16c>
    c6b8:	e59f32e4 	ldr	r3, [pc, #740]	; c9a4 <staff_nrf_tx_send_ack+0x4a0>
    c6bc:	e59f22e4 	ldr	r2, [pc, #740]	; c9a8 <staff_nrf_tx_send_ack+0x4a4>
    c6c0:	e59f12e4 	ldr	r1, [pc, #740]	; c9ac <staff_nrf_tx_send_ack+0x4a8>
    c6c4:	e59f02e4 	ldr	r0, [pc, #740]	; c9b0 <staff_nrf_tx_send_ack+0x4ac>
    c6c8:	eb000212 	bl	cf18 <printk>
    c6cc:	eb00031a 	bl	d33c <clean_reboot>
    c6d0:	e1a01004 	mov	r1, r4
    c6d4:	e59f02d8 	ldr	r0, [pc, #728]	; c9b4 <staff_nrf_tx_send_ack+0x4b0>
    c6d8:	ebfff079 	bl	88c4 <nrf_dump>
    c6dc:	e59f32d4 	ldr	r3, [pc, #724]	; c9b8 <staff_nrf_tx_send_ack+0x4b4>
    c6e0:	e58d3000 	str	r3, [sp]
    c6e4:	e59f32d0 	ldr	r3, [pc, #720]	; c9bc <staff_nrf_tx_send_ack+0x4b8>
    c6e8:	e59f22b8 	ldr	r2, [pc, #696]	; c9a8 <staff_nrf_tx_send_ack+0x4a4>
    c6ec:	e59f12b8 	ldr	r1, [pc, #696]	; c9ac <staff_nrf_tx_send_ack+0x4a8>
    c6f0:	e59f02c8 	ldr	r0, [pc, #712]	; c9c0 <staff_nrf_tx_send_ack+0x4bc>
    c6f4:	eb000207 	bl	cf18 <printk>
    c6f8:	eb00030f 	bl	d33c <clean_reboot>
    c6fc:	e1a01004 	mov	r1, r4
    c700:	e59f02ac 	ldr	r0, [pc, #684]	; c9b4 <staff_nrf_tx_send_ack+0x4b0>
    c704:	ebfff06e 	bl	88c4 <nrf_dump>
    c708:	e59f32b4 	ldr	r3, [pc, #692]	; c9c4 <staff_nrf_tx_send_ack+0x4c0>
    c70c:	e58d3000 	str	r3, [sp]
    c710:	e3a03f6e 	mov	r3, #440	; 0x1b8
    c714:	e59f228c 	ldr	r2, [pc, #652]	; c9a8 <staff_nrf_tx_send_ack+0x4a4>
    c718:	e59f128c 	ldr	r1, [pc, #652]	; c9ac <staff_nrf_tx_send_ack+0x4a8>
    c71c:	e59f029c 	ldr	r0, [pc, #668]	; c9c0 <staff_nrf_tx_send_ack+0x4bc>
    c720:	eb0001fc 	bl	cf18 <printk>
    c724:	eb000304 	bl	d33c <clean_reboot>
    c728:	e1a01004 	mov	r1, r4
    c72c:	e59f0280 	ldr	r0, [pc, #640]	; c9b4 <staff_nrf_tx_send_ack+0x4b0>
    c730:	ebfff063 	bl	88c4 <nrf_dump>
    c734:	e59f328c 	ldr	r3, [pc, #652]	; c9c8 <staff_nrf_tx_send_ack+0x4c4>
    c738:	e58d3000 	str	r3, [sp]
    c73c:	e59f3288 	ldr	r3, [pc, #648]	; c9cc <staff_nrf_tx_send_ack+0x4c8>
    c740:	e59f2260 	ldr	r2, [pc, #608]	; c9a8 <staff_nrf_tx_send_ack+0x4a4>
    c744:	e59f1260 	ldr	r1, [pc, #608]	; c9ac <staff_nrf_tx_send_ack+0x4a8>
    c748:	e59f0270 	ldr	r0, [pc, #624]	; c9c0 <staff_nrf_tx_send_ack+0x4bc>
    c74c:	eb0001f1 	bl	cf18 <printk>
    c750:	eb0002f9 	bl	d33c <clean_reboot>
    c754:	e1a01004 	mov	r1, r4
    c758:	e59f0254 	ldr	r0, [pc, #596]	; c9b4 <staff_nrf_tx_send_ack+0x4b0>
    c75c:	ebfff058 	bl	88c4 <nrf_dump>
    c760:	e59f3268 	ldr	r3, [pc, #616]	; c9d0 <staff_nrf_tx_send_ack+0x4cc>
    c764:	e58d3000 	str	r3, [sp]
    c768:	e3a03f6f 	mov	r3, #444	; 0x1bc
    c76c:	e59f2234 	ldr	r2, [pc, #564]	; c9a8 <staff_nrf_tx_send_ack+0x4a4>
    c770:	e59f1234 	ldr	r1, [pc, #564]	; c9ac <staff_nrf_tx_send_ack+0x4a8>
    c774:	e59f0244 	ldr	r0, [pc, #580]	; c9c0 <staff_nrf_tx_send_ack+0x4bc>
    c778:	eb0001e6 	bl	cf18 <printk>
    c77c:	eb0002ee 	bl	d33c <clean_reboot>
    c780:	e1a01004 	mov	r1, r4
    c784:	e59f0228 	ldr	r0, [pc, #552]	; c9b4 <staff_nrf_tx_send_ack+0x4b0>
    c788:	ebfff04d 	bl	88c4 <nrf_dump>
    c78c:	e59f3240 	ldr	r3, [pc, #576]	; c9d4 <staff_nrf_tx_send_ack+0x4d0>
    c790:	e58d3000 	str	r3, [sp]
    c794:	e59f323c 	ldr	r3, [pc, #572]	; c9d8 <staff_nrf_tx_send_ack+0x4d4>
    c798:	e59f2208 	ldr	r2, [pc, #520]	; c9a8 <staff_nrf_tx_send_ack+0x4a4>
    c79c:	e59f1208 	ldr	r1, [pc, #520]	; c9ac <staff_nrf_tx_send_ack+0x4a8>
    c7a0:	e59f0218 	ldr	r0, [pc, #536]	; c9c0 <staff_nrf_tx_send_ack+0x4bc>
    c7a4:	eb0001db 	bl	cf18 <printk>
    c7a8:	eb0002e3 	bl	d33c <clean_reboot>
    c7ac:	e1a01004 	mov	r1, r4
    c7b0:	e59f01fc 	ldr	r0, [pc, #508]	; c9b4 <staff_nrf_tx_send_ack+0x4b0>
    c7b4:	ebfff042 	bl	88c4 <nrf_dump>
    c7b8:	e59f321c 	ldr	r3, [pc, #540]	; c9dc <staff_nrf_tx_send_ack+0x4d8>
    c7bc:	e58d3000 	str	r3, [sp]
    c7c0:	e59f3218 	ldr	r3, [pc, #536]	; c9e0 <staff_nrf_tx_send_ack+0x4dc>
    c7c4:	e59f21dc 	ldr	r2, [pc, #476]	; c9a8 <staff_nrf_tx_send_ack+0x4a4>
    c7c8:	e59f11dc 	ldr	r1, [pc, #476]	; c9ac <staff_nrf_tx_send_ack+0x4a8>
    c7cc:	e59f01ec 	ldr	r0, [pc, #492]	; c9c0 <staff_nrf_tx_send_ack+0x4bc>
    c7d0:	eb0001d0 	bl	cf18 <printk>
    c7d4:	eb0002d8 	bl	d33c <clean_reboot>
    c7d8:	e1a01004 	mov	r1, r4
    c7dc:	e59f01d0 	ldr	r0, [pc, #464]	; c9b4 <staff_nrf_tx_send_ack+0x4b0>
    c7e0:	ebfff037 	bl	88c4 <nrf_dump>
    c7e4:	e59f31f8 	ldr	r3, [pc, #504]	; c9e4 <staff_nrf_tx_send_ack+0x4e0>
    c7e8:	e58d3000 	str	r3, [sp]
    c7ec:	e59f31f4 	ldr	r3, [pc, #500]	; c9e8 <staff_nrf_tx_send_ack+0x4e4>
    c7f0:	e59f21b0 	ldr	r2, [pc, #432]	; c9a8 <staff_nrf_tx_send_ack+0x4a4>
    c7f4:	e59f11b0 	ldr	r1, [pc, #432]	; c9ac <staff_nrf_tx_send_ack+0x4a8>
    c7f8:	e59f01c0 	ldr	r0, [pc, #448]	; c9c0 <staff_nrf_tx_send_ack+0x4bc>
    c7fc:	eb0001c5 	bl	cf18 <printk>
    c800:	eb0002cd 	bl	d33c <clean_reboot>
    c804:	e1a01004 	mov	r1, r4
    c808:	e59f01a4 	ldr	r0, [pc, #420]	; c9b4 <staff_nrf_tx_send_ack+0x4b0>
    c80c:	ebfff02c 	bl	88c4 <nrf_dump>
    c810:	e59f31d4 	ldr	r3, [pc, #468]	; c9ec <staff_nrf_tx_send_ack+0x4e8>
    c814:	e58d3000 	str	r3, [sp]
    c818:	e3a03f71 	mov	r3, #452	; 0x1c4
    c81c:	e59f2184 	ldr	r2, [pc, #388]	; c9a8 <staff_nrf_tx_send_ack+0x4a4>
    c820:	e59f1184 	ldr	r1, [pc, #388]	; c9ac <staff_nrf_tx_send_ack+0x4a8>
    c824:	e59f0194 	ldr	r0, [pc, #404]	; c9c0 <staff_nrf_tx_send_ack+0x4bc>
    c828:	eb0001ba 	bl	cf18 <printk>
    c82c:	eb0002c2 	bl	d33c <clean_reboot>
    c830:	e3a03f76 	mov	r3, #472	; 0x1d8
    c834:	e59f216c 	ldr	r2, [pc, #364]	; c9a8 <staff_nrf_tx_send_ack+0x4a4>
    c838:	e59f116c 	ldr	r1, [pc, #364]	; c9ac <staff_nrf_tx_send_ack+0x4a8>
    c83c:	e59f01ac 	ldr	r0, [pc, #428]	; c9f0 <staff_nrf_tx_send_ack+0x4ec>
    c840:	eb0001b4 	bl	cf18 <printk>
    c844:	eb0002bc 	bl	d33c <clean_reboot>
    c848:	e3a02003 	mov	r2, #3, 0
    c84c:	e1a01005 	mov	r1, r5
    c850:	e59f019c 	ldr	r0, [pc, #412]	; c9f4 <staff_nrf_tx_send_ack+0x4f0>
    c854:	eb0001af 	bl	cf18 <printk>
    c858:	eaffff67 	b	c5fc <staff_nrf_tx_send_ack+0xf8>
    c85c:	e59f3194 	ldr	r3, [pc, #404]	; c9f8 <staff_nrf_tx_send_ack+0x4f4>
    c860:	e58d3000 	str	r3, [sp]
    c864:	e59f3190 	ldr	r3, [pc, #400]	; c9fc <staff_nrf_tx_send_ack+0x4f8>
    c868:	e59f2138 	ldr	r2, [pc, #312]	; c9a8 <staff_nrf_tx_send_ack+0x4a4>
    c86c:	e59f1138 	ldr	r1, [pc, #312]	; c9ac <staff_nrf_tx_send_ack+0x4a8>
    c870:	e59f0188 	ldr	r0, [pc, #392]	; ca00 <staff_nrf_tx_send_ack+0x4fc>
    c874:	eb0001a7 	bl	cf18 <printk>
    c878:	eb0002af 	bl	d33c <clean_reboot>
    c87c:	e59f3180 	ldr	r3, [pc, #384]	; ca04 <staff_nrf_tx_send_ack+0x500>
    c880:	e58d3000 	str	r3, [sp]
    c884:	e3a03f7b 	mov	r3, #492	; 0x1ec
    c888:	e59f2118 	ldr	r2, [pc, #280]	; c9a8 <staff_nrf_tx_send_ack+0x4a4>
    c88c:	e59f1118 	ldr	r1, [pc, #280]	; c9ac <staff_nrf_tx_send_ack+0x4a8>
    c890:	e59f0168 	ldr	r0, [pc, #360]	; ca00 <staff_nrf_tx_send_ack+0x4fc>
    c894:	eb00019f 	bl	cf18 <printk>
    c898:	eb0002a7 	bl	d33c <clean_reboot>
    c89c:	e3a02004 	mov	r2, #4, 0
    c8a0:	e3a01017 	mov	r1, #23, 0
    c8a4:	e1a00004 	mov	r0, r4
    c8a8:	ebffef81 	bl	86b4 <nrf_bit_isset>
    c8ac:	e3500000 	cmp	r0, #0, 0
    c8b0:	0a000018 	beq	c918 <staff_nrf_tx_send_ack+0x414>
    c8b4:	e3a02020 	mov	r2, #32, 0
    c8b8:	e3a01007 	mov	r1, #7, 0
    c8bc:	e1a00004 	mov	r0, r4
    c8c0:	ebffee6d 	bl	827c <nrf_put8>
    c8c4:	e3560000 	cmp	r6, #0, 0
    c8c8:	0a00001d 	beq	c944 <staff_nrf_tx_send_ack+0x440>
    c8cc:	e3a02000 	mov	r2, #0, 0
    c8d0:	e3a01017 	mov	r1, #23, 0
    c8d4:	e1a00004 	mov	r0, r4
    c8d8:	ebffef75 	bl	86b4 <nrf_bit_isset>
    c8dc:	e3500000 	cmp	r0, #0, 0
    c8e0:	0a000028 	beq	c988 <staff_nrf_tx_send_ack+0x484>
    c8e4:	e3a01008 	mov	r1, #8, 0
    c8e8:	e1a00004 	mov	r0, r4
    c8ec:	ebffee4d 	bl	8228 <nrf_get8>
    c8f0:	e200000f 	and	r0, r0, #15, 0
    c8f4:	e2842a02 	add	r2, r4, #8192	; 0x2000
    c8f8:	e5923048 	ldr	r3, [r2, #72]	; 0x48
    c8fc:	e0833000 	add	r3, r3, r0
    c900:	e5823048 	str	r3, [r2, #72]	; 0x48
    c904:	e1a00004 	mov	r0, r4
    c908:	ebfffa5e 	bl	b288 <nrf_rx_mode>
    c90c:	e1a00006 	mov	r0, r6
    c910:	e28dd00c 	add	sp, sp, #12, 0
    c914:	e8bd80f0 	pop	{r4, r5, r6, r7, pc}
    c918:	e1a01004 	mov	r1, r4
    c91c:	e59f0090 	ldr	r0, [pc, #144]	; c9b4 <staff_nrf_tx_send_ack+0x4b0>
    c920:	ebffefe7 	bl	88c4 <nrf_dump>
    c924:	e59f30c0 	ldr	r3, [pc, #192]	; c9ec <staff_nrf_tx_send_ack+0x4e8>
    c928:	e58d3000 	str	r3, [sp]
    c92c:	e59f30d4 	ldr	r3, [pc, #212]	; ca08 <staff_nrf_tx_send_ack+0x504>
    c930:	e59f2070 	ldr	r2, [pc, #112]	; c9a8 <staff_nrf_tx_send_ack+0x4a4>
    c934:	e59f1070 	ldr	r1, [pc, #112]	; c9ac <staff_nrf_tx_send_ack+0x4a8>
    c938:	e59f0080 	ldr	r0, [pc, #128]	; c9c0 <staff_nrf_tx_send_ack+0x4bc>
    c93c:	eb000175 	bl	cf18 <printk>
    c940:	eb00027d 	bl	d33c <clean_reboot>
    c944:	e59f30c0 	ldr	r3, [pc, #192]	; ca0c <staff_nrf_tx_send_ack+0x508>
    c948:	e58d3000 	str	r3, [sp]
    c94c:	e59f30bc 	ldr	r3, [pc, #188]	; ca10 <staff_nrf_tx_send_ack+0x50c>
    c950:	e59f2050 	ldr	r2, [pc, #80]	; c9a8 <staff_nrf_tx_send_ack+0x4a4>
    c954:	e59f1050 	ldr	r1, [pc, #80]	; c9ac <staff_nrf_tx_send_ack+0x4a8>
    c958:	e59f00a0 	ldr	r0, [pc, #160]	; ca00 <staff_nrf_tx_send_ack+0x4fc>
    c95c:	eb00016d 	bl	cf18 <printk>
    c960:	eb000275 	bl	d33c <clean_reboot>
    c964:	e1a01004 	mov	r1, r4
    c968:	e59f00a4 	ldr	r0, [pc, #164]	; ca14 <staff_nrf_tx_send_ack+0x510>
    c96c:	ebffefd4 	bl	88c4 <nrf_dump>
    c970:	e3a03f8e 	mov	r3, #568	; 0x238
    c974:	e59f202c 	ldr	r2, [pc, #44]	; c9a8 <staff_nrf_tx_send_ack+0x4a4>
    c978:	e59f102c 	ldr	r1, [pc, #44]	; c9ac <staff_nrf_tx_send_ack+0x4a8>
    c97c:	e59f0094 	ldr	r0, [pc, #148]	; ca18 <staff_nrf_tx_send_ack+0x514>
    c980:	eb000164 	bl	cf18 <printk>
    c984:	eb00026c 	bl	d33c <clean_reboot>
    c988:	e3a03f9e 	mov	r3, #632	; 0x278
    c98c:	e59f2014 	ldr	r2, [pc, #20]	; c9a8 <staff_nrf_tx_send_ack+0x4a4>
    c990:	e59f1014 	ldr	r1, [pc, #20]	; c9ac <staff_nrf_tx_send_ack+0x4a8>
    c994:	e59f0080 	ldr	r0, [pc, #128]	; ca1c <staff_nrf_tx_send_ack+0x518>
    c998:	eb00015e 	bl	cf18 <printk>
    c99c:	eaffffd0 	b	c8e4 <staff_nrf_tx_send_ack+0x3e0>
    c9a0:	0000f0fc 	.word	0x0000f0fc
    c9a4:	0000025d 	.word	0x0000025d
    c9a8:	0000ed50 	.word	0x0000ed50
    c9ac:	0000e8fc 	.word	0x0000e8fc
    c9b0:	0000ec60 	.word	0x0000ec60
    c9b4:	0000e0ec 	.word	0x0000e0ec
    c9b8:	0000e580 	.word	0x0000e580
    c9bc:	000001aa 	.word	0x000001aa
    c9c0:	0000e100 	.word	0x0000e100
    c9c4:	0000ebc0 	.word	0x0000ebc0
    c9c8:	0000e65c 	.word	0x0000e65c
    c9cc:	000001b9 	.word	0x000001b9
    c9d0:	0000e4e0 	.word	0x0000e4e0
    c9d4:	0000e48c 	.word	0x0000e48c
    c9d8:	000001bd 	.word	0x000001bd
    c9dc:	0000e514 	.word	0x0000e514
    c9e0:	000001be 	.word	0x000001be
    c9e4:	0000e4fc 	.word	0x0000e4fc
    c9e8:	000001bf 	.word	0x000001bf
    c9ec:	0000e550 	.word	0x0000e550
    c9f0:	0000ebd8 	.word	0x0000ebd8
    c9f4:	0000eb44 	.word	0x0000eb44
    c9f8:	0000ec1c 	.word	0x0000ec1c
    c9fc:	000001eb 	.word	0x000001eb
    ca00:	0000dbd8 	.word	0x0000dbd8
    ca04:	0000ec24 	.word	0x0000ec24
    ca08:	00000203 	.word	0x00000203
    ca0c:	0000e7e4 	.word	0x0000e7e4
    ca10:	00000205 	.word	0x00000205
    ca14:	0000ec30 	.word	0x0000ec30
    ca18:	0000ec44 	.word	0x0000ec44
    ca1c:	0000ec84 	.word	0x0000ec84

0000ca20 <__udivsi3>:
    ca20:	e2512001 	subs	r2, r1, #1, 0
    ca24:	012fff1e 	bxeq	lr
    ca28:	3a000036 	bcc	cb08 <__udivsi3+0xe8>
    ca2c:	e1500001 	cmp	r0, r1
    ca30:	9a000022 	bls	cac0 <__udivsi3+0xa0>
    ca34:	e1110002 	tst	r1, r2
    ca38:	0a000023 	beq	cacc <__udivsi3+0xac>
    ca3c:	e311020e 	tst	r1, #-536870912	; 0xe0000000
    ca40:	01a01181 	lsleq	r1, r1, #3
    ca44:	03a03008 	moveq	r3, #8, 0
    ca48:	13a03001 	movne	r3, #1, 0
    ca4c:	e3510201 	cmp	r1, #268435456	; 0x10000000
    ca50:	31510000 	cmpcc	r1, r0
    ca54:	31a01201 	lslcc	r1, r1, #4
    ca58:	31a03203 	lslcc	r3, r3, #4
    ca5c:	3afffffa 	bcc	ca4c <__udivsi3+0x2c>
    ca60:	e3510102 	cmp	r1, #-2147483648	; 0x80000000
    ca64:	31510000 	cmpcc	r1, r0
    ca68:	31a01081 	lslcc	r1, r1, #1
    ca6c:	31a03083 	lslcc	r3, r3, #1
    ca70:	3afffffa 	bcc	ca60 <__udivsi3+0x40>
    ca74:	e3a02000 	mov	r2, #0, 0
    ca78:	e1500001 	cmp	r0, r1
    ca7c:	20400001 	subcs	r0, r0, r1
    ca80:	21822003 	orrcs	r2, r2, r3
    ca84:	e15000a1 	cmp	r0, r1, lsr #1
    ca88:	204000a1 	subcs	r0, r0, r1, lsr #1
    ca8c:	218220a3 	orrcs	r2, r2, r3, lsr #1
    ca90:	e1500121 	cmp	r0, r1, lsr #2
    ca94:	20400121 	subcs	r0, r0, r1, lsr #2
    ca98:	21822123 	orrcs	r2, r2, r3, lsr #2
    ca9c:	e15001a1 	cmp	r0, r1, lsr #3
    caa0:	204001a1 	subcs	r0, r0, r1, lsr #3
    caa4:	218221a3 	orrcs	r2, r2, r3, lsr #3
    caa8:	e3500000 	cmp	r0, #0, 0
    caac:	11b03223 	lsrsne	r3, r3, #4
    cab0:	11a01221 	lsrne	r1, r1, #4
    cab4:	1affffef 	bne	ca78 <__udivsi3+0x58>
    cab8:	e1a00002 	mov	r0, r2
    cabc:	e12fff1e 	bx	lr
    cac0:	03a00001 	moveq	r0, #1, 0
    cac4:	13a00000 	movne	r0, #0, 0
    cac8:	e12fff1e 	bx	lr
    cacc:	e3510801 	cmp	r1, #65536	; 0x10000
    cad0:	21a01821 	lsrcs	r1, r1, #16
    cad4:	23a02010 	movcs	r2, #16, 0
    cad8:	33a02000 	movcc	r2, #0, 0
    cadc:	e3510c01 	cmp	r1, #256	; 0x100
    cae0:	21a01421 	lsrcs	r1, r1, #8
    cae4:	22822008 	addcs	r2, r2, #8, 0
    cae8:	e3510010 	cmp	r1, #16, 0
    caec:	21a01221 	lsrcs	r1, r1, #4
    caf0:	22822004 	addcs	r2, r2, #4, 0
    caf4:	e3510004 	cmp	r1, #4, 0
    caf8:	82822003 	addhi	r2, r2, #3, 0
    cafc:	908220a1 	addls	r2, r2, r1, lsr #1
    cb00:	e1a00230 	lsr	r0, r0, r2
    cb04:	e12fff1e 	bx	lr
    cb08:	e3500000 	cmp	r0, #0, 0
    cb0c:	13e00000 	mvnne	r0, #0, 0
    cb10:	ea000007 	b	cb34 <__aeabi_idiv0>

0000cb14 <__aeabi_uidivmod>:
    cb14:	e3510000 	cmp	r1, #0, 0
    cb18:	0afffffa 	beq	cb08 <__udivsi3+0xe8>
    cb1c:	e92d4003 	push	{r0, r1, lr}
    cb20:	ebffffbe 	bl	ca20 <__udivsi3>
    cb24:	e8bd4006 	pop	{r1, r2, lr}
    cb28:	e0030092 	mul	r3, r2, r0
    cb2c:	e0411003 	sub	r1, r1, r3
    cb30:	e12fff1e 	bx	lr

0000cb34 <__aeabi_idiv0>:
    cb34:	e12fff1e 	bx	lr

0000cb38 <gpio_set_on>:
    cb38:	e350002f 	cmp	r0, #47, 0	; 0x2f
    cb3c:	1350001f 	cmpne	r0, #31, 0
    cb40:	812fff1e 	bxhi	lr
    cb44:	e92d4010 	push	{r4, lr}
    cb48:	e350002f 	cmp	r0, #47, 0	; 0x2f
    cb4c:	0a000004 	beq	cb64 <gpio_set_on+0x2c>
    cb50:	e3a01001 	mov	r1, #1, 0
    cb54:	e1a01011 	lsl	r1, r1, r0
    cb58:	e59f001c 	ldr	r0, [pc, #28]	; cb7c <gpio_set_on+0x44>
    cb5c:	ebffed30 	bl	8024 <PUT32>
    cb60:	e8bd8010 	pop	{r4, pc}
    cb64:	e2400020 	sub	r0, r0, #32, 0
    cb68:	e3a01001 	mov	r1, #1, 0
    cb6c:	e1a01011 	lsl	r1, r1, r0
    cb70:	e59f0008 	ldr	r0, [pc, #8]	; cb80 <gpio_set_on+0x48>
    cb74:	ebffed2a 	bl	8024 <PUT32>
    cb78:	e8bd8010 	pop	{r4, pc}
    cb7c:	2020001c 	.word	0x2020001c
    cb80:	20200020 	.word	0x20200020

0000cb84 <gpio_set_off>:
    cb84:	e350002f 	cmp	r0, #47, 0	; 0x2f
    cb88:	1350001f 	cmpne	r0, #31, 0
    cb8c:	812fff1e 	bxhi	lr
    cb90:	e92d4010 	push	{r4, lr}
    cb94:	e350002f 	cmp	r0, #47, 0	; 0x2f
    cb98:	0a000004 	beq	cbb0 <gpio_set_off+0x2c>
    cb9c:	e3a01001 	mov	r1, #1, 0
    cba0:	e1a01011 	lsl	r1, r1, r0
    cba4:	e59f001c 	ldr	r0, [pc, #28]	; cbc8 <gpio_set_off+0x44>
    cba8:	ebffed1d 	bl	8024 <PUT32>
    cbac:	e8bd8010 	pop	{r4, pc}
    cbb0:	e2400020 	sub	r0, r0, #32, 0
    cbb4:	e3a01001 	mov	r1, #1, 0
    cbb8:	e1a01011 	lsl	r1, r1, r0
    cbbc:	e59f0008 	ldr	r0, [pc, #8]	; cbcc <gpio_set_off+0x48>
    cbc0:	ebffed17 	bl	8024 <PUT32>
    cbc4:	e8bd8010 	pop	{r4, pc}
    cbc8:	20200028 	.word	0x20200028
    cbcc:	2020002c 	.word	0x2020002c

0000cbd0 <gpio_write>:
    cbd0:	e92d4010 	push	{r4, lr}
    cbd4:	e3510000 	cmp	r1, #0, 0
    cbd8:	0a000001 	beq	cbe4 <gpio_write+0x14>
    cbdc:	ebffffd5 	bl	cb38 <gpio_set_on>
    cbe0:	e8bd8010 	pop	{r4, pc}
    cbe4:	ebffffe6 	bl	cb84 <gpio_set_off>
    cbe8:	e8bd8010 	pop	{r4, pc}

0000cbec <gpio_read>:
    cbec:	e350001f 	cmp	r0, #31, 0
    cbf0:	9a000001 	bls	cbfc <gpio_read+0x10>
    cbf4:	e3e00000 	mvn	r0, #0, 0
    cbf8:	e12fff1e 	bx	lr
    cbfc:	e92d4010 	push	{r4, lr}
    cc00:	e1a04000 	mov	r4, r0
    cc04:	e59f001c 	ldr	r0, [pc, #28]	; cc28 <gpio_read+0x3c>
    cc08:	ebffed07 	bl	802c <GET32>
    cc0c:	e3a03001 	mov	r3, #1, 0
    cc10:	e0103413 	ands	r3, r0, r3, lsl r4
    cc14:	1a000001 	bne	cc20 <gpio_read+0x34>
    cc18:	e3a00000 	mov	r0, #0, 0
    cc1c:	e8bd8010 	pop	{r4, pc}
    cc20:	e3a00001 	mov	r0, #1, 0
    cc24:	e8bd8010 	pop	{r4, pc}
    cc28:	20200034 	.word	0x20200034

0000cc2c <gpio_set_function>:
    cc2c:	e3510007 	cmp	r1, #7, 0
    cc30:	812fff1e 	bxhi	lr
    cc34:	e92d4070 	push	{r4, r5, r6, lr}
    cc38:	e1a04000 	mov	r4, r0
    cc3c:	e1a06001 	mov	r6, r1
    cc40:	e350002f 	cmp	r0, #47, 0	; 0x2f
    cc44:	1350001f 	cmpne	r0, #31, 0
    cc48:	88bd8070 	pophi	{r4, r5, r6, pc}
    cc4c:	e59f5034 	ldr	r5, [pc, #52]	; cc88 <gpio_set_function+0x5c>
    cc50:	ea000001 	b	cc5c <gpio_set_function+0x30>
    cc54:	e244400a 	sub	r4, r4, #10, 0
    cc58:	e2855004 	add	r5, r5, #4, 0
    cc5c:	e3540009 	cmp	r4, #9, 0
    cc60:	8afffffb 	bhi	cc54 <gpio_set_function+0x28>
    cc64:	e1a00005 	mov	r0, r5
    cc68:	ebffecef 	bl	802c <GET32>
    cc6c:	e0844084 	add	r4, r4, r4, lsl #1
    cc70:	e3a01007 	mov	r1, #7, 0
    cc74:	e1c01411 	bic	r1, r0, r1, lsl r4
    cc78:	e1811416 	orr	r1, r1, r6, lsl r4
    cc7c:	e1a00005 	mov	r0, r5
    cc80:	ebffece7 	bl	8024 <PUT32>
    cc84:	e8bd8070 	pop	{r4, r5, r6, pc}
    cc88:	20200000 	.word	0x20200000

0000cc8c <gpio_set_output>:
    cc8c:	e92d4010 	push	{r4, lr}
    cc90:	e3a01001 	mov	r1, #1, 0
    cc94:	ebffffe4 	bl	cc2c <gpio_set_function>
    cc98:	e8bd8010 	pop	{r4, pc}

0000cc9c <gpio_set_input>:
    cc9c:	e92d4010 	push	{r4, lr}
    cca0:	e3a01000 	mov	r1, #0, 0
    cca4:	ebffffe0 	bl	cc2c <gpio_set_function>
    cca8:	e8bd8010 	pop	{r4, pc}

0000ccac <gpio_set_pullup>:
    ccac:	e350001f 	cmp	r0, #31, 0
    ccb0:	812fff1e 	bxhi	lr
    ccb4:	e92d4070 	push	{r4, r5, r6, lr}
    ccb8:	e1a04000 	mov	r4, r0
    ccbc:	e3a01002 	mov	r1, #2, 0
    ccc0:	e59f0038 	ldr	r0, [pc, #56]	; cd00 <gpio_set_pullup+0x54>
    ccc4:	ebffecd6 	bl	8024 <PUT32>
    ccc8:	e59f6034 	ldr	r6, [pc, #52]	; cd04 <gpio_set_pullup+0x58>
    cccc:	e1a00006 	mov	r0, r6
    ccd0:	eb0001cd 	bl	d40c <delay_cycles>
    ccd4:	e59f502c 	ldr	r5, [pc, #44]	; cd08 <gpio_set_pullup+0x5c>
    ccd8:	e3a01001 	mov	r1, #1, 0
    ccdc:	e1a01411 	lsl	r1, r1, r4
    cce0:	e1a00005 	mov	r0, r5
    cce4:	ebffecce 	bl	8024 <PUT32>
    cce8:	e1a00006 	mov	r0, r6
    ccec:	eb0001c6 	bl	d40c <delay_cycles>
    ccf0:	e3a01000 	mov	r1, #0, 0
    ccf4:	e1a00005 	mov	r0, r5
    ccf8:	ebffecc9 	bl	8024 <PUT32>
    ccfc:	e8bd8070 	pop	{r4, r5, r6, pc}
    cd00:	20200094 	.word	0x20200094
    cd04:	000005dc 	.word	0x000005dc
    cd08:	20200098 	.word	0x20200098

0000cd0c <gpio_set_pulldown>:
    cd0c:	e350001f 	cmp	r0, #31, 0
    cd10:	812fff1e 	bxhi	lr
    cd14:	e92d4070 	push	{r4, r5, r6, lr}
    cd18:	e1a04000 	mov	r4, r0
    cd1c:	e3a01001 	mov	r1, #1, 0
    cd20:	e59f0038 	ldr	r0, [pc, #56]	; cd60 <gpio_set_pulldown+0x54>
    cd24:	ebffecbe 	bl	8024 <PUT32>
    cd28:	e59f6034 	ldr	r6, [pc, #52]	; cd64 <gpio_set_pulldown+0x58>
    cd2c:	e1a00006 	mov	r0, r6
    cd30:	eb0001b5 	bl	d40c <delay_cycles>
    cd34:	e59f502c 	ldr	r5, [pc, #44]	; cd68 <gpio_set_pulldown+0x5c>
    cd38:	e3a01001 	mov	r1, #1, 0
    cd3c:	e1a01411 	lsl	r1, r1, r4
    cd40:	e1a00005 	mov	r0, r5
    cd44:	ebffecb6 	bl	8024 <PUT32>
    cd48:	e1a00006 	mov	r0, r6
    cd4c:	eb0001ae 	bl	d40c <delay_cycles>
    cd50:	e3a01000 	mov	r1, #0, 0
    cd54:	e1a00005 	mov	r0, r5
    cd58:	ebffecb1 	bl	8024 <PUT32>
    cd5c:	e8bd8070 	pop	{r4, r5, r6, pc}
    cd60:	20200094 	.word	0x20200094
    cd64:	000005dc 	.word	0x000005dc
    cd68:	20200098 	.word	0x20200098

0000cd6c <gpio_pud_off>:
    cd6c:	e350001f 	cmp	r0, #31, 0
    cd70:	812fff1e 	bxhi	lr
    cd74:	e92d4070 	push	{r4, r5, r6, lr}
    cd78:	e1a04000 	mov	r4, r0
    cd7c:	e3a01000 	mov	r1, #0, 0
    cd80:	e59f0038 	ldr	r0, [pc, #56]	; cdc0 <gpio_pud_off+0x54>
    cd84:	ebffeca6 	bl	8024 <PUT32>
    cd88:	e59f6034 	ldr	r6, [pc, #52]	; cdc4 <gpio_pud_off+0x58>
    cd8c:	e1a00006 	mov	r0, r6
    cd90:	eb00019d 	bl	d40c <delay_cycles>
    cd94:	e59f502c 	ldr	r5, [pc, #44]	; cdc8 <gpio_pud_off+0x5c>
    cd98:	e3a01001 	mov	r1, #1, 0
    cd9c:	e1a01411 	lsl	r1, r1, r4
    cda0:	e1a00005 	mov	r0, r5
    cda4:	ebffec9e 	bl	8024 <PUT32>
    cda8:	e1a00006 	mov	r0, r6
    cdac:	eb000196 	bl	d40c <delay_cycles>
    cdb0:	e3a01000 	mov	r1, #0, 0
    cdb4:	e1a00005 	mov	r0, r5
    cdb8:	ebffec99 	bl	8024 <PUT32>
    cdbc:	e8bd8070 	pop	{r4, r5, r6, pc}
    cdc0:	20200094 	.word	0x20200094
    cdc4:	000005dc 	.word	0x000005dc
    cdc8:	20200098 	.word	0x20200098

0000cdcc <memcpy>:
    cdcc:	e3100007 	tst	r0, #7, 0
    cdd0:	1a00000f 	bne	ce14 <memcpy+0x48>
    cdd4:	e3110007 	tst	r1, #7, 0
    cdd8:	1a00000d 	bne	ce14 <memcpy+0x48>
    cddc:	e2123007 	ands	r3, r2, #7, 0
    cde0:	1a00000b 	bne	ce14 <memcpy+0x48>
    cde4:	e1a021a2 	lsr	r2, r2, #3
    cde8:	e1530002 	cmp	r3, r2
    cdec:	212fff1e 	bxcs	lr
    cdf0:	e92d0030 	push	{r4, r5}
    cdf4:	e1a0c183 	lsl	ip, r3, #3
    cdf8:	e18140dc 	ldrd	r4, [r1, ip]
    cdfc:	e18040fc 	strd	r4, [r0, ip]
    ce00:	e2833001 	add	r3, r3, #1, 0
    ce04:	e1530002 	cmp	r3, r2
    ce08:	3afffff9 	bcc	cdf4 <memcpy+0x28>
    ce0c:	e8bd0030 	pop	{r4, r5}
    ce10:	e12fff1e 	bx	lr
    ce14:	e2103003 	ands	r3, r0, #3, 0
    ce18:	1a000011 	bne	ce64 <memcpy+0x98>
    ce1c:	e211c003 	ands	ip, r1, #3, 0
    ce20:	1a00000c 	bne	ce58 <memcpy+0x8c>
    ce24:	e2123003 	ands	r3, r2, #3, 0
    ce28:	1a00000f 	bne	ce6c <memcpy+0xa0>
    ce2c:	e1a02122 	lsr	r2, r2, #2
    ce30:	ea000002 	b	ce40 <memcpy+0x74>
    ce34:	e791c103 	ldr	ip, [r1, r3, lsl #2]
    ce38:	e780c103 	str	ip, [r0, r3, lsl #2]
    ce3c:	e2833001 	add	r3, r3, #1, 0
    ce40:	e1530002 	cmp	r3, r2
    ce44:	3afffffa 	bcc	ce34 <memcpy+0x68>
    ce48:	e12fff1e 	bx	lr
    ce4c:	e7d1c003 	ldrb	ip, [r1, r3]
    ce50:	e7c0c003 	strb	ip, [r0, r3]
    ce54:	e2833001 	add	r3, r3, #1, 0
    ce58:	e1530002 	cmp	r3, r2
    ce5c:	3afffffa 	bcc	ce4c <memcpy+0x80>
    ce60:	e12fff1e 	bx	lr
    ce64:	e3a03000 	mov	r3, #0, 0
    ce68:	eafffffa 	b	ce58 <memcpy+0x8c>
    ce6c:	e1a0300c 	mov	r3, ip
    ce70:	eafffff8 	b	ce58 <memcpy+0x8c>

0000ce74 <memcpy_end>:
    ce74:	e12fff1e 	bx	lr

0000ce78 <memset>:
    ce78:	e3520000 	cmp	r2, #0, 0
    ce7c:	012fff1e 	bxeq	lr
    ce80:	e3510000 	cmp	r1, #0, 0
    ce84:	1a000007 	bne	cea8 <memset+0x30>
    ce88:	e3100007 	tst	r0, #7, 0
    ce8c:	1a000001 	bne	ce98 <memset+0x20>
    ce90:	e3120007 	tst	r2, #7, 0
    ce94:	0a000011 	beq	cee0 <memset+0x68>
    ce98:	e3100003 	tst	r0, #3, 0
    ce9c:	1a000001 	bne	cea8 <memset+0x30>
    cea0:	e3120003 	tst	r2, #3, 0
    cea4:	0a000001 	beq	ceb0 <memset+0x38>
    cea8:	e0802002 	add	r2, r0, r2
    ceac:	ea000008 	b	ced4 <memset+0x5c>
    ceb0:	e1a02122 	lsr	r2, r2, #2
    ceb4:	ea000001 	b	cec0 <memset+0x48>
    ceb8:	e4801004 	str	r1, [r0], #4
    cebc:	e1a02003 	mov	r2, r3
    cec0:	e2423001 	sub	r3, r2, #1, 0
    cec4:	e3520000 	cmp	r2, #0, 0
    cec8:	1afffffa 	bne	ceb8 <memset+0x40>
    cecc:	e12fff1e 	bx	lr
    ced0:	e4c01001 	strb	r1, [r0], #1
    ced4:	e1500002 	cmp	r0, r2
    ced8:	3afffffc 	bcc	ced0 <memset+0x58>
    cedc:	e12fff1e 	bx	lr
    cee0:	e1a021a2 	lsr	r2, r2, #3
    cee4:	e2423001 	sub	r3, r2, #1, 0
    cee8:	e3520000 	cmp	r2, #0, 0
    ceec:	012fff1e 	bxeq	lr
    cef0:	e92d0030 	push	{r4, r5}
    cef4:	e1a04001 	mov	r4, r1
    cef8:	e1a05fc1 	asr	r5, r1, #31
    cefc:	e0c040f8 	strd	r4, [r0], #8
    cf00:	e1a02003 	mov	r2, r3
    cf04:	e2433001 	sub	r3, r3, #1, 0
    cf08:	e3520000 	cmp	r2, #0, 0
    cf0c:	1afffff8 	bne	cef4 <memset+0x7c>
    cf10:	e8bd0030 	pop	{r4, r5}
    cf14:	e12fff1e 	bx	lr

0000cf18 <printk>:
    cf18:	e92d000f 	push	{r0, r1, r2, r3}
    cf1c:	e52de004 	push	{lr}		; (str lr, [sp, #-4]!)
    cf20:	e24dd00c 	sub	sp, sp, #12, 0
    cf24:	e28d1014 	add	r1, sp, #20, 0
    cf28:	e58d1004 	str	r1, [sp, #4]
    cf2c:	e59d0010 	ldr	r0, [sp, #16]
    cf30:	eb000047 	bl	d054 <vprintk>
    cf34:	e28dd00c 	add	sp, sp, #12, 0
    cf38:	e49de004 	pop	{lr}		; (ldr lr, [sp], #4)
    cf3c:	e28dd010 	add	sp, sp, #16, 0
    cf40:	e12fff1e 	bx	lr

0000cf44 <emit_val>:
    cf44:	e92d4010 	push	{r4, lr}
    cf48:	e24dd030 	sub	sp, sp, #48, 0	; 0x30
    cf4c:	e350000a 	cmp	r0, #10, 0
    cf50:	0a000014 	beq	cfa8 <emit_val+0x64>
    cf54:	e3500010 	cmp	r0, #16, 0
    cf58:	0a000022 	beq	cfe8 <emit_val+0xa4>
    cf5c:	e3500002 	cmp	r0, #2, 0
    cf60:	0a000006 	beq	cf80 <emit_val+0x3c>
    cf64:	e58d0000 	str	r0, [sp]
    cf68:	e3a0301b 	mov	r3, #27, 0
    cf6c:	e59f20c0 	ldr	r2, [pc, #192]	; d034 <emit_val+0xf0>
    cf70:	e59f10c0 	ldr	r1, [pc, #192]	; d038 <emit_val+0xf4>
    cf74:	e59f00c0 	ldr	r0, [pc, #192]	; d03c <emit_val+0xf8>
    cf78:	ebffffe6 	bl	cf18 <printk>
    cf7c:	eb0000ee 	bl	d33c <clean_reboot>
    cf80:	e28d400c 	add	r4, sp, #12, 0
    cf84:	e2012001 	and	r2, r1, #1, 0
    cf88:	e59f00b0 	ldr	r0, [pc, #176]	; d040 <emit_val+0xfc>
    cf8c:	e7d02002 	ldrb	r2, [r0, r2]
    cf90:	e5c42000 	strb	r2, [r4]
    cf94:	e2844001 	add	r4, r4, #1, 0
    cf98:	e3510001 	cmp	r1, #1, 0
    cf9c:	e1a010a1 	lsr	r1, r1, #1
    cfa0:	8afffff7 	bhi	cf84 <emit_val+0x40>
    cfa4:	ea00001d 	b	d020 <emit_val+0xdc>
    cfa8:	e28d400c 	add	r4, sp, #12, 0
    cfac:	e59f3090 	ldr	r3, [pc, #144]	; d044 <emit_val+0x100>
    cfb0:	e0832193 	umull	r2, r3, r3, r1
    cfb4:	e1a031a3 	lsr	r3, r3, #3
    cfb8:	e1a00003 	mov	r0, r3
    cfbc:	e0833103 	add	r3, r3, r3, lsl #2
    cfc0:	e0413083 	sub	r3, r1, r3, lsl #1
    cfc4:	e59fc07c 	ldr	ip, [pc, #124]	; d048 <emit_val+0x104>
    cfc8:	e7dcc003 	ldrb	ip, [ip, r3]
    cfcc:	e5c4c000 	strb	ip, [r4]
    cfd0:	e2844001 	add	r4, r4, #1, 0
    cfd4:	e1a03001 	mov	r3, r1
    cfd8:	e1a01000 	mov	r1, r0
    cfdc:	e3530009 	cmp	r3, #9, 0
    cfe0:	8afffff1 	bhi	cfac <emit_val+0x68>
    cfe4:	ea00000d 	b	d020 <emit_val+0xdc>
    cfe8:	e28d400c 	add	r4, sp, #12, 0
    cfec:	e201200f 	and	r2, r1, #15, 0
    cff0:	e59f0054 	ldr	r0, [pc, #84]	; d04c <emit_val+0x108>
    cff4:	e7d02002 	ldrb	r2, [r0, r2]
    cff8:	e5c42000 	strb	r2, [r4]
    cffc:	e2844001 	add	r4, r4, #1, 0
    d000:	e351000f 	cmp	r1, #15, 0
    d004:	e1a01221 	lsr	r1, r1, #4
    d008:	8afffff7 	bhi	cfec <emit_val+0xa8>
    d00c:	ea000003 	b	d020 <emit_val+0xdc>
    d010:	e59f3038 	ldr	r3, [pc, #56]	; d050 <emit_val+0x10c>
    d014:	e5933000 	ldr	r3, [r3]
    d018:	e5740001 	ldrb	r0, [r4, #-1]!
    d01c:	e12fff33 	blx	r3
    d020:	e28d300c 	add	r3, sp, #12, 0
    d024:	e1540003 	cmp	r4, r3
    d028:	8afffff8 	bhi	d010 <emit_val+0xcc>
    d02c:	e28dd030 	add	sp, sp, #48, 0	; 0x30
    d030:	e8bd8010 	pop	{r4, pc}
    d034:	0000ee20 	.word	0x0000ee20
    d038:	0000ed68 	.word	0x0000ed68
    d03c:	0000ed78 	.word	0x0000ed78
    d040:	0000ed9c 	.word	0x0000ed9c
    d044:	cccccccd 	.word	0xcccccccd
    d048:	0000eda0 	.word	0x0000eda0
    d04c:	0000edac 	.word	0x0000edac
    d050:	0000f0ec 	.word	0x0000f0ec

0000d054 <vprintk>:
    d054:	e92d4030 	push	{r4, r5, lr}
    d058:	e24dd014 	sub	sp, sp, #20, 0
    d05c:	e1a04000 	mov	r4, r0
    d060:	e58d100c 	str	r1, [sp, #12]
    d064:	ea000003 	b	d078 <vprintk+0x24>
    d068:	e59f3288 	ldr	r3, [pc, #648]	; d2f8 <vprintk+0x2a4>
    d06c:	e5933000 	ldr	r3, [r3]
    d070:	e12fff33 	blx	r3
    d074:	e2844001 	add	r4, r4, #1, 0
    d078:	e5d40000 	ldrb	r0, [r4]
    d07c:	e3500000 	cmp	r0, #0, 0
    d080:	0a00009a 	beq	d2f0 <vprintk+0x29c>
    d084:	e3500025 	cmp	r0, #37, 0	; 0x25
    d088:	1afffff6 	bne	d068 <vprintk+0x14>
    d08c:	e2845001 	add	r5, r4, #1, 0
    d090:	e5d42001 	ldrb	r2, [r4, #1]
    d094:	e2423062 	sub	r3, r2, #98, 0	; 0x62
    d098:	e3530016 	cmp	r3, #22, 0
    d09c:	979ff103 	ldrls	pc, [pc, r3, lsl #2]
    d0a0:	ea00008b 	b	d2d4 <vprintk+0x280>
    d0a4:	0000d100 	.word	0x0000d100
    d0a8:	0000d140 	.word	0x0000d140
    d0ac:	0000d258 	.word	0x0000d258
    d0b0:	0000d2d4 	.word	0x0000d2d4
    d0b4:	0000d2d4 	.word	0x0000d2d4
    d0b8:	0000d2d4 	.word	0x0000d2d4
    d0bc:	0000d2d4 	.word	0x0000d2d4
    d0c0:	0000d2d4 	.word	0x0000d2d4
    d0c4:	0000d2d4 	.word	0x0000d2d4
    d0c8:	0000d2d4 	.word	0x0000d2d4
    d0cc:	0000d164 	.word	0x0000d164
    d0d0:	0000d2d4 	.word	0x0000d2d4
    d0d4:	0000d2d4 	.word	0x0000d2d4
    d0d8:	0000d2d4 	.word	0x0000d2d4
    d0dc:	0000d21c 	.word	0x0000d21c
    d0e0:	0000d2d4 	.word	0x0000d2d4
    d0e4:	0000d2d4 	.word	0x0000d2d4
    d0e8:	0000d29c 	.word	0x0000d29c
    d0ec:	0000d2d4 	.word	0x0000d2d4
    d0f0:	0000d120 	.word	0x0000d120
    d0f4:	0000d2d4 	.word	0x0000d2d4
    d0f8:	0000d2d4 	.word	0x0000d2d4
    d0fc:	0000d21c 	.word	0x0000d21c
    d100:	e59d300c 	ldr	r3, [sp, #12]
    d104:	e2832004 	add	r2, r3, #4, 0
    d108:	e58d200c 	str	r2, [sp, #12]
    d10c:	e5931000 	ldr	r1, [r3]
    d110:	e3a00002 	mov	r0, #2, 0
    d114:	ebffff8a 	bl	cf44 <emit_val>
    d118:	e1a04005 	mov	r4, r5
    d11c:	eaffffd4 	b	d074 <vprintk+0x20>
    d120:	e59d300c 	ldr	r3, [sp, #12]
    d124:	e2832004 	add	r2, r3, #4, 0
    d128:	e58d200c 	str	r2, [sp, #12]
    d12c:	e5931000 	ldr	r1, [r3]
    d130:	e3a0000a 	mov	r0, #10, 0
    d134:	ebffff82 	bl	cf44 <emit_val>
    d138:	e1a04005 	mov	r4, r5
    d13c:	eaffffcc 	b	d074 <vprintk+0x20>
    d140:	e59f31b0 	ldr	r3, [pc, #432]	; d2f8 <vprintk+0x2a4>
    d144:	e5932000 	ldr	r2, [r3]
    d148:	e59d300c 	ldr	r3, [sp, #12]
    d14c:	e2831004 	add	r1, r3, #4, 0
    d150:	e58d100c 	str	r1, [sp, #12]
    d154:	e5930000 	ldr	r0, [r3]
    d158:	e12fff32 	blx	r2
    d15c:	e1a04005 	mov	r4, r5
    d160:	eaffffc3 	b	d074 <vprintk+0x20>
    d164:	e2842002 	add	r2, r4, #2, 0
    d168:	e5d43002 	ldrb	r3, [r4, #2]
    d16c:	e353006c 	cmp	r3, #108, 0	; 0x6c
    d170:	1a000018 	bne	d1d8 <vprintk+0x184>
    d174:	e2845003 	add	r5, r4, #3, 0
    d178:	e5d43003 	ldrb	r3, [r4, #3]
    d17c:	e3530078 	cmp	r3, #120, 0	; 0x78
    d180:	1a00001b 	bne	d1f4 <vprintk+0x1a0>
    d184:	e59f416c 	ldr	r4, [pc, #364]	; d2f8 <vprintk+0x2a4>
    d188:	e5943000 	ldr	r3, [r4]
    d18c:	e3a00030 	mov	r0, #48, 0	; 0x30
    d190:	e12fff33 	blx	r3
    d194:	e5943000 	ldr	r3, [r4]
    d198:	e3a00078 	mov	r0, #120, 0	; 0x78
    d19c:	e12fff33 	blx	r3
    d1a0:	e59d300c 	ldr	r3, [sp, #12]
    d1a4:	e2833007 	add	r3, r3, #7, 0
    d1a8:	e3c33007 	bic	r3, r3, #7, 0
    d1ac:	e2832008 	add	r2, r3, #8, 0
    d1b0:	e58d200c 	str	r2, [sp, #12]
    d1b4:	e5934000 	ldr	r4, [r3]
    d1b8:	e5931004 	ldr	r1, [r3, #4]
    d1bc:	e3510000 	cmp	r1, #0, 0
    d1c0:	1a000012 	bne	d210 <vprintk+0x1bc>
    d1c4:	e1a01004 	mov	r1, r4
    d1c8:	e3a00010 	mov	r0, #16, 0
    d1cc:	ebffff5c 	bl	cf44 <emit_val>
    d1d0:	e1a04005 	mov	r4, r5
    d1d4:	eaffffa6 	b	d074 <vprintk+0x20>
    d1d8:	e58d2000 	str	r2, [sp]
    d1dc:	e3a0303b 	mov	r3, #59, 0	; 0x3b
    d1e0:	e59f2114 	ldr	r2, [pc, #276]	; d2fc <vprintk+0x2a8>
    d1e4:	e59f1114 	ldr	r1, [pc, #276]	; d300 <vprintk+0x2ac>
    d1e8:	e59f0114 	ldr	r0, [pc, #276]	; d304 <vprintk+0x2b0>
    d1ec:	ebffff49 	bl	cf18 <printk>
    d1f0:	eb000051 	bl	d33c <clean_reboot>
    d1f4:	e58d5000 	str	r5, [sp]
    d1f8:	e3a0303e 	mov	r3, #62, 0	; 0x3e
    d1fc:	e59f20f8 	ldr	r2, [pc, #248]	; d2fc <vprintk+0x2a8>
    d200:	e59f10f8 	ldr	r1, [pc, #248]	; d300 <vprintk+0x2ac>
    d204:	e59f00f8 	ldr	r0, [pc, #248]	; d304 <vprintk+0x2b0>
    d208:	ebffff42 	bl	cf18 <printk>
    d20c:	eb00004a 	bl	d33c <clean_reboot>
    d210:	e3a00010 	mov	r0, #16, 0
    d214:	ebffff4a 	bl	cf44 <emit_val>
    d218:	eaffffe9 	b	d1c4 <vprintk+0x170>
    d21c:	e59f40d4 	ldr	r4, [pc, #212]	; d2f8 <vprintk+0x2a4>
    d220:	e5943000 	ldr	r3, [r4]
    d224:	e3a00030 	mov	r0, #48, 0	; 0x30
    d228:	e12fff33 	blx	r3
    d22c:	e5943000 	ldr	r3, [r4]
    d230:	e3a00078 	mov	r0, #120, 0	; 0x78
    d234:	e12fff33 	blx	r3
    d238:	e59d300c 	ldr	r3, [sp, #12]
    d23c:	e2832004 	add	r2, r3, #4, 0
    d240:	e58d200c 	str	r2, [sp, #12]
    d244:	e5931000 	ldr	r1, [r3]
    d248:	e3a00010 	mov	r0, #16, 0
    d24c:	ebffff3c 	bl	cf44 <emit_val>
    d250:	e1a04005 	mov	r4, r5
    d254:	eaffff86 	b	d074 <vprintk+0x20>
    d258:	e59d300c 	ldr	r3, [sp, #12]
    d25c:	e2832004 	add	r2, r3, #4, 0
    d260:	e58d200c 	str	r2, [sp, #12]
    d264:	e5934000 	ldr	r4, [r3]
    d268:	e3540000 	cmp	r4, #0, 0
    d26c:	ba000004 	blt	d284 <vprintk+0x230>
    d270:	e1a01004 	mov	r1, r4
    d274:	e3a0000a 	mov	r0, #10, 0
    d278:	ebffff31 	bl	cf44 <emit_val>
    d27c:	e1a04005 	mov	r4, r5
    d280:	eaffff7b 	b	d074 <vprintk+0x20>
    d284:	e59f306c 	ldr	r3, [pc, #108]	; d2f8 <vprintk+0x2a4>
    d288:	e5933000 	ldr	r3, [r3]
    d28c:	e3a0002d 	mov	r0, #45, 0	; 0x2d
    d290:	e12fff33 	blx	r3
    d294:	e2644000 	rsb	r4, r4, #0, 0
    d298:	eafffff4 	b	d270 <vprintk+0x21c>
    d29c:	e59d300c 	ldr	r3, [sp, #12]
    d2a0:	e2832004 	add	r2, r3, #4, 0
    d2a4:	e58d200c 	str	r2, [sp, #12]
    d2a8:	e5934000 	ldr	r4, [r3]
    d2ac:	e5d40000 	ldrb	r0, [r4]
    d2b0:	e3500000 	cmp	r0, #0, 0
    d2b4:	0a000004 	beq	d2cc <vprintk+0x278>
    d2b8:	e59f3038 	ldr	r3, [pc, #56]	; d2f8 <vprintk+0x2a4>
    d2bc:	e5933000 	ldr	r3, [r3]
    d2c0:	e12fff33 	blx	r3
    d2c4:	e2844001 	add	r4, r4, #1, 0
    d2c8:	eafffff7 	b	d2ac <vprintk+0x258>
    d2cc:	e1a04005 	mov	r4, r5
    d2d0:	eaffff67 	b	d074 <vprintk+0x20>
    d2d4:	e58d2000 	str	r2, [sp]
    d2d8:	e3a03062 	mov	r3, #98, 0	; 0x62
    d2dc:	e59f2018 	ldr	r2, [pc, #24]	; d2fc <vprintk+0x2a8>
    d2e0:	e59f1018 	ldr	r1, [pc, #24]	; d300 <vprintk+0x2ac>
    d2e4:	e59f001c 	ldr	r0, [pc, #28]	; d308 <vprintk+0x2b4>
    d2e8:	ebffff0a 	bl	cf18 <printk>
    d2ec:	eb000012 	bl	d33c <clean_reboot>
    d2f0:	e28dd014 	add	sp, sp, #20, 0
    d2f4:	e8bd8030 	pop	{r4, r5, pc}
    d2f8:	0000f0ec 	.word	0x0000f0ec
    d2fc:	0000ee2c 	.word	0x0000ee2c
    d300:	0000ed68 	.word	0x0000ed68
    d304:	0000edc0 	.word	0x0000edc0
    d308:	0000edf8 	.word	0x0000edf8

0000d30c <default_putchar>:
    d30c:	e92d4010 	push	{r4, lr}
    d310:	e1a04000 	mov	r4, r0
    d314:	e6ef0070 	uxtb	r0, r0
    d318:	eb0001b3 	bl	d9ec <uart_put8>
    d31c:	e1a00004 	mov	r0, r4
    d320:	e8bd8010 	pop	{r4, pc}

0000d324 <rpi_putchar_set>:
    d324:	e59f300c 	ldr	r3, [pc, #12]	; d338 <rpi_putchar_set+0x14>
    d328:	e5932000 	ldr	r2, [r3]
    d32c:	e5830000 	str	r0, [r3]
    d330:	e1a00002 	mov	r0, r2
    d334:	e12fff1e 	bx	lr
    d338:	0000f0ec 	.word	0x0000f0ec

0000d33c <clean_reboot>:
    d33c:	e92d4010 	push	{r4, lr}
    d340:	e59f0010 	ldr	r0, [pc, #16]	; d358 <clean_reboot+0x1c>
    d344:	eb0001e3 	bl	dad8 <putk>
    d348:	eb0001d1 	bl	da94 <uart_flush_tx>
    d34c:	e3a0000a 	mov	r0, #10, 0
    d350:	eb00006f 	bl	d514 <delay_ms>
    d354:	eb000043 	bl	d468 <rpi_reboot>
    d358:	0000ee34 	.word	0x0000ee34

0000d35c <_cstart>:
    d35c:	e52de004 	push	{lr}		; (str lr, [sp, #-4]!)
    d360:	e24dd014 	sub	sp, sp, #20, 0
    d364:	eb000027 	bl	d408 <custom_loader>
    d368:	e59f3084 	ldr	r3, [pc, #132]	; d3f4 <_cstart+0x98>
    d36c:	ea000001 	b	d378 <_cstart+0x1c>
    d370:	e3a02000 	mov	r2, #0, 0
    d374:	e4832004 	str	r2, [r3], #4
    d378:	e59f2078 	ldr	r2, [pc, #120]	; d3f8 <_cstart+0x9c>
    d37c:	e1530002 	cmp	r3, r2
    d380:	3afffffa 	bcc	d370 <_cstart+0x14>
    d384:	e3a02a01 	mov	r2, #4096	; 0x1000
    d388:	e3a01000 	mov	r1, #0, 0
    d38c:	e1a00001 	mov	r0, r1
    d390:	ebfffeb8 	bl	ce78 <memset>
    d394:	e3a03000 	mov	r3, #0, 0
    d398:	e3530b01 	cmp	r3, #1024	; 0x400
    d39c:	2a00000f 	bcs	d3e0 <_cstart+0x84>
    d3a0:	e1a02103 	lsl	r2, r3, #2
    d3a4:	e5921000 	ldr	r1, [r2]
    d3a8:	e3510000 	cmp	r1, #0, 0
    d3ac:	02833001 	addeq	r3, r3, #1, 0
    d3b0:	0afffff8 	beq	d398 <_cstart+0x3c>
    d3b4:	e5923000 	ldr	r3, [r2]
    d3b8:	e3a01001 	mov	r1, #1, 0
    d3bc:	e58d1008 	str	r1, [sp, #8]
    d3c0:	e58d3004 	str	r3, [sp, #4]
    d3c4:	e58d2000 	str	r2, [sp]
    d3c8:	e3a03012 	mov	r3, #18, 0
    d3cc:	e59f2028 	ldr	r2, [pc, #40]	; d3fc <_cstart+0xa0>
    d3d0:	e59f1028 	ldr	r1, [pc, #40]	; d400 <_cstart+0xa4>
    d3d4:	e59f0028 	ldr	r0, [pc, #40]	; d404 <_cstart+0xa8>
    d3d8:	ebfffece 	bl	cf18 <printk>
    d3dc:	ebffffd6 	bl	d33c <clean_reboot>
    d3e0:	eb000145 	bl	d8fc <uart_init>
    d3e4:	e3a03001 	mov	r3, #1, 0
    d3e8:	ee0f3f1c 	mcr	15, 0, r3, cr15, cr12, {0}
    d3ec:	ebffeb11 	bl	8038 <notmain>
    d3f0:	ebffffd1 	bl	d33c <clean_reboot>
    d3f4:	0000f0fc 	.word	0x0000f0fc
    d3f8:	0000f110 	.word	0x0000f110
    d3fc:	0000eeb4 	.word	0x0000eeb4
    d400:	0000ee40 	.word	0x0000ee40
    d404:	0000ee78 	.word	0x0000ee78

0000d408 <custom_loader>:
    d408:	e12fff1e 	bx	lr

0000d40c <delay_cycles>:
    d40c:	e2403001 	sub	r3, r0, #1, 0
    d410:	e3500000 	cmp	r0, #0, 0
    d414:	012fff1e 	bxeq	lr
    d418:	e2811000 	add	r1, r1, #0, 0
    d41c:	e1a00003 	mov	r0, r3
    d420:	eafffff9 	b	d40c <delay_cycles>

0000d424 <dev_barrier>:
    d424:	ea000002 	b	d434 <dsb>

0000d428 <dmb>:
    d428:	e3a00000 	mov	r0, #0, 0
    d42c:	ee070fba 	mcr	15, 0, r0, cr7, cr10, {5}
    d430:	e12fff1e 	bx	lr

0000d434 <dsb>:
    d434:	ee070f9a 	mcr	15, 0, r0, cr7, cr10, {4}
    d438:	e12fff1e 	bx	lr

0000d43c <at_user_level>:
    d43c:	e10f0000 	mrs	r0, CPSR
    d440:	e200001f 	and	r0, r0, #31, 0
    d444:	e3500010 	cmp	r0, #16, 0
    d448:	13a00000 	movne	r0, #0, 0
    d44c:	03a00001 	moveq	r0, #1, 0
    d450:	e12fff1e 	bx	lr

0000d454 <set_user_level>:
    d454:	e10f3000 	mrs	r3, CPSR
    d458:	e3c3301f 	bic	r3, r3, #31, 0
    d45c:	e3833010 	orr	r3, r3, #16, 0
    d460:	e129f003 	msr	CPSR_fc, r3
    d464:	e12fff1e 	bx	lr

0000d468 <rpi_reboot>:
    d468:	e92d4010 	push	{r4, lr}
    d46c:	ebfffff2 	bl	d43c <at_user_level>
    d470:	e3500000 	cmp	r0, #0, 0
    d474:	1a00000a 	bne	d4a4 <rpi_reboot+0x3c>
    d478:	eb0001a3 	bl	db0c <reboot_callout>
    d47c:	eb000184 	bl	da94 <uart_flush_tx>
    d480:	e3a0000a 	mov	r0, #10, 0
    d484:	eb000022 	bl	d514 <delay_ms>
    d488:	e59f101c 	ldr	r1, [pc, #28]	; d4ac <rpi_reboot+0x44>
    d48c:	e59f001c 	ldr	r0, [pc, #28]	; d4b0 <rpi_reboot+0x48>
    d490:	ebffeae3 	bl	8024 <PUT32>
    d494:	e59f1018 	ldr	r1, [pc, #24]	; d4b4 <rpi_reboot+0x4c>
    d498:	e59f0018 	ldr	r0, [pc, #24]	; d4b8 <rpi_reboot+0x50>
    d49c:	ebffeae0 	bl	8024 <PUT32>
    d4a0:	eafffffe 	b	d4a0 <rpi_reboot+0x38>
    d4a4:	ebffffea 	bl	d454 <set_user_level>
    d4a8:	eafffff2 	b	d478 <rpi_reboot+0x10>
    d4ac:	5a000001 	.word	0x5a000001
    d4b0:	20100024 	.word	0x20100024
    d4b4:	5a000020 	.word	0x5a000020
    d4b8:	2010001c 	.word	0x2010001c

0000d4bc <rpi_wait>:
    d4bc:	e12fff1e 	bx	lr

0000d4c0 <timer_get_usec_raw>:
    d4c0:	e92d4010 	push	{r4, lr}
    d4c4:	e59f0004 	ldr	r0, [pc, #4]	; d4d0 <timer_get_usec_raw+0x10>
    d4c8:	ebffead7 	bl	802c <GET32>
    d4cc:	e8bd8010 	pop	{r4, pc}
    d4d0:	20003004 	.word	0x20003004

0000d4d4 <timer_get_usec>:
    d4d4:	e92d4010 	push	{r4, lr}
    d4d8:	ebffffd1 	bl	d424 <dev_barrier>
    d4dc:	ebfffff7 	bl	d4c0 <timer_get_usec_raw>
    d4e0:	e1a04000 	mov	r4, r0
    d4e4:	ebffffce 	bl	d424 <dev_barrier>
    d4e8:	e1a00004 	mov	r0, r4
    d4ec:	e8bd8010 	pop	{r4, pc}

0000d4f0 <delay_us>:
    d4f0:	e92d4070 	push	{r4, r5, r6, lr}
    d4f4:	e1a05000 	mov	r5, r0
    d4f8:	ebfffff5 	bl	d4d4 <timer_get_usec>
    d4fc:	e1a04000 	mov	r4, r0
    d500:	ebfffff3 	bl	d4d4 <timer_get_usec>
    d504:	e0400004 	sub	r0, r0, r4
    d508:	e1500005 	cmp	r0, r5
    d50c:	3afffffb 	bcc	d500 <delay_us+0x10>
    d510:	e8bd8070 	pop	{r4, r5, r6, pc}

0000d514 <delay_ms>:
    d514:	e92d4010 	push	{r4, lr}
    d518:	e0603280 	rsb	r3, r0, r0, lsl #5
    d51c:	e0800103 	add	r0, r0, r3, lsl #2
    d520:	e1a00180 	lsl	r0, r0, #3
    d524:	ebfffff1 	bl	d4f0 <delay_us>
    d528:	e8bd8010 	pop	{r4, pc}

0000d52c <delay_sec>:
    d52c:	e92d4010 	push	{r4, lr}
    d530:	e0603280 	rsb	r3, r0, r0, lsl #5
    d534:	e0800103 	add	r0, r0, r3, lsl #2
    d538:	e1a00180 	lsl	r0, r0, #3
    d53c:	ebfffff4 	bl	d514 <delay_ms>
    d540:	e8bd8010 	pop	{r4, pc}

0000d544 <kmalloc_heap_end>:
    d544:	e59f3004 	ldr	r3, [pc, #4]	; d550 <kmalloc_heap_end+0xc>
    d548:	e5930000 	ldr	r0, [r3]
    d54c:	e12fff1e 	bx	lr
    d550:	0000f0f0 	.word	0x0000f0f0

0000d554 <kmalloc_heap_start>:
    d554:	e59f3004 	ldr	r3, [pc, #4]	; d560 <kmalloc_heap_start+0xc>
    d558:	e5930004 	ldr	r0, [r3, #4]
    d55c:	e12fff1e 	bx	lr
    d560:	0000f0f0 	.word	0x0000f0f0

0000d564 <kmalloc_heap_ptr>:
    d564:	e59f3004 	ldr	r3, [pc, #4]	; d570 <kmalloc_heap_ptr+0xc>
    d568:	e5930008 	ldr	r0, [r3, #8]
    d56c:	e12fff1e 	bx	lr
    d570:	0000f0f0 	.word	0x0000f0f0

0000d574 <kmalloc_init_set_start>:
    d574:	e52de004 	push	{lr}		; (str lr, [sp, #-4]!)
    d578:	e24dd00c 	sub	sp, sp, #12, 0
    d57c:	e59f30a8 	ldr	r3, [pc, #168]	; d62c <kmalloc_init_set_start+0xb8>
    d580:	e5933000 	ldr	r3, [r3]
    d584:	e3530000 	cmp	r3, #0, 0
    d588:	1a00000f 	bne	d5cc <kmalloc_init_set_start+0x58>
    d58c:	e59f3098 	ldr	r3, [pc, #152]	; d62c <kmalloc_init_set_start+0xb8>
    d590:	e3a02001 	mov	r2, #1, 0
    d594:	e5832000 	str	r2, [r3]
    d598:	e3510000 	cmp	r1, #0, 0
    d59c:	0a000010 	beq	d5e4 <kmalloc_init_set_start+0x70>
    d5a0:	e59f3088 	ldr	r3, [pc, #136]	; d630 <kmalloc_init_set_start+0xbc>
    d5a4:	e5933008 	ldr	r3, [r3, #8]
    d5a8:	e1530000 	cmp	r3, r0
    d5ac:	8a000014 	bhi	d604 <kmalloc_init_set_start+0x90>
    d5b0:	e59f3078 	ldr	r3, [pc, #120]	; d630 <kmalloc_init_set_start+0xbc>
    d5b4:	e5830008 	str	r0, [r3, #8]
    d5b8:	e5830004 	str	r0, [r3, #4]
    d5bc:	e0800001 	add	r0, r0, r1
    d5c0:	e5830000 	str	r0, [r3]
    d5c4:	e28dd00c 	add	sp, sp, #12, 0
    d5c8:	e49df004 	pop	{pc}		; (ldr pc, [sp], #4)
    d5cc:	e3a03031 	mov	r3, #49, 0	; 0x31
    d5d0:	e59f205c 	ldr	r2, [pc, #92]	; d634 <kmalloc_init_set_start+0xc0>
    d5d4:	e59f105c 	ldr	r1, [pc, #92]	; d638 <kmalloc_init_set_start+0xc4>
    d5d8:	e59f005c 	ldr	r0, [pc, #92]	; d63c <kmalloc_init_set_start+0xc8>
    d5dc:	ebfffe4d 	bl	cf18 <printk>
    d5e0:	ebffff55 	bl	d33c <clean_reboot>
    d5e4:	e59f3054 	ldr	r3, [pc, #84]	; d640 <kmalloc_init_set_start+0xcc>
    d5e8:	e58d3000 	str	r3, [sp]
    d5ec:	e3a03036 	mov	r3, #54, 0	; 0x36
    d5f0:	e59f203c 	ldr	r2, [pc, #60]	; d634 <kmalloc_init_set_start+0xc0>
    d5f4:	e59f103c 	ldr	r1, [pc, #60]	; d638 <kmalloc_init_set_start+0xc4>
    d5f8:	e59f0044 	ldr	r0, [pc, #68]	; d644 <kmalloc_init_set_start+0xd0>
    d5fc:	ebfffe45 	bl	cf18 <printk>
    d600:	ebffff4d 	bl	d33c <clean_reboot>
    d604:	e59f3024 	ldr	r3, [pc, #36]	; d630 <kmalloc_init_set_start+0xbc>
    d608:	e5933000 	ldr	r3, [r3]
    d60c:	e58d3004 	str	r3, [sp, #4]
    d610:	e58d0000 	str	r0, [sp]
    d614:	e3a0303a 	mov	r3, #58, 0	; 0x3a
    d618:	e59f2014 	ldr	r2, [pc, #20]	; d634 <kmalloc_init_set_start+0xc0>
    d61c:	e59f1014 	ldr	r1, [pc, #20]	; d638 <kmalloc_init_set_start+0xc4>
    d620:	e59f0020 	ldr	r0, [pc, #32]	; d648 <kmalloc_init_set_start+0xd4>
    d624:	ebfffe3b 	bl	cf18 <printk>
    d628:	ebffff43 	bl	d33c <clean_reboot>
    d62c:	0000f10c 	.word	0x0000f10c
    d630:	0000f0f0 	.word	0x0000f0f0
    d634:	0000f098 	.word	0x0000f098
    d638:	0000eec4 	.word	0x0000eec4
    d63c:	0000eed0 	.word	0x0000eed0
    d640:	0000ef04 	.word	0x0000ef04
    d644:	0000dbd8 	.word	0x0000dbd8
    d648:	0000ef10 	.word	0x0000ef10

0000d64c <kmalloc_notzero>:
    d64c:	e52de004 	push	{lr}		; (str lr, [sp, #-4]!)
    d650:	e24dd00c 	sub	sp, sp, #12, 0
    d654:	e3500000 	cmp	r0, #0, 0
    d658:	0a00000d 	beq	d694 <kmalloc_notzero+0x48>
    d65c:	e2800007 	add	r0, r0, #7, 0
    d660:	e3c03007 	bic	r3, r0, #7, 0
    d664:	e59f208c 	ldr	r2, [pc, #140]	; d6f8 <kmalloc_notzero+0xac>
    d668:	e5920008 	ldr	r0, [r2, #8]
    d66c:	e3100007 	tst	r0, #7, 0
    d670:	1a00000f 	bne	d6b4 <kmalloc_notzero+0x68>
    d674:	e0802003 	add	r2, r0, r3
    d678:	e59f1078 	ldr	r1, [pc, #120]	; d6f8 <kmalloc_notzero+0xac>
    d67c:	e5812008 	str	r2, [r1, #8]
    d680:	e5911000 	ldr	r1, [r1]
    d684:	e1520001 	cmp	r2, r1
    d688:	8a000011 	bhi	d6d4 <kmalloc_notzero+0x88>
    d68c:	e28dd00c 	add	sp, sp, #12, 0
    d690:	e49df004 	pop	{pc}		; (ldr pc, [sp], #4)
    d694:	e59f3060 	ldr	r3, [pc, #96]	; d6fc <kmalloc_notzero+0xb0>
    d698:	e58d3000 	str	r3, [sp]
    d69c:	e3a03053 	mov	r3, #83, 0	; 0x53
    d6a0:	e59f2058 	ldr	r2, [pc, #88]	; d700 <kmalloc_notzero+0xb4>
    d6a4:	e59f1058 	ldr	r1, [pc, #88]	; d704 <kmalloc_notzero+0xb8>
    d6a8:	e59f0058 	ldr	r0, [pc, #88]	; d708 <kmalloc_notzero+0xbc>
    d6ac:	ebfffe19 	bl	cf18 <printk>
    d6b0:	ebffff21 	bl	d33c <clean_reboot>
    d6b4:	e59f3050 	ldr	r3, [pc, #80]	; d70c <kmalloc_notzero+0xc0>
    d6b8:	e58d3000 	str	r3, [sp]
    d6bc:	e3a03056 	mov	r3, #86, 0	; 0x56
    d6c0:	e59f2038 	ldr	r2, [pc, #56]	; d700 <kmalloc_notzero+0xb4>
    d6c4:	e59f1038 	ldr	r1, [pc, #56]	; d704 <kmalloc_notzero+0xb8>
    d6c8:	e59f0038 	ldr	r0, [pc, #56]	; d708 <kmalloc_notzero+0xbc>
    d6cc:	ebfffe11 	bl	cf18 <printk>
    d6d0:	ebffff19 	bl	d33c <clean_reboot>
    d6d4:	e0422001 	sub	r2, r2, r1
    d6d8:	e58d2004 	str	r2, [sp, #4]
    d6dc:	e58d3000 	str	r3, [sp]
    d6e0:	e3a0305b 	mov	r3, #91, 0	; 0x5b
    d6e4:	e59f2014 	ldr	r2, [pc, #20]	; d700 <kmalloc_notzero+0xb4>
    d6e8:	e59f1014 	ldr	r1, [pc, #20]	; d704 <kmalloc_notzero+0xb8>
    d6ec:	e59f001c 	ldr	r0, [pc, #28]	; d710 <kmalloc_notzero+0xc4>
    d6f0:	ebfffe08 	bl	cf18 <printk>
    d6f4:	ebffff10 	bl	d33c <clean_reboot>
    d6f8:	0000f0f0 	.word	0x0000f0f0
    d6fc:	0000e7e4 	.word	0x0000e7e4
    d700:	0000f0b0 	.word	0x0000f0b0
    d704:	0000eec4 	.word	0x0000eec4
    d708:	0000dbd8 	.word	0x0000dbd8
    d70c:	0000ef54 	.word	0x0000ef54
    d710:	0000ef6c 	.word	0x0000ef6c

0000d714 <kmalloc>:
    d714:	e92d4030 	push	{r4, r5, lr}
    d718:	e24dd00c 	sub	sp, sp, #12, 0
    d71c:	e2504000 	subs	r4, r0, #0, 0
    d720:	0a000008 	beq	d748 <kmalloc+0x34>
    d724:	e1a00004 	mov	r0, r4
    d728:	ebffffc7 	bl	d64c <kmalloc_notzero>
    d72c:	e1a05000 	mov	r5, r0
    d730:	e1a02004 	mov	r2, r4
    d734:	e3a01000 	mov	r1, #0, 0
    d738:	ebfffdce 	bl	ce78 <memset>
    d73c:	e1a00005 	mov	r0, r5
    d740:	e28dd00c 	add	sp, sp, #12, 0
    d744:	e8bd8030 	pop	{r4, r5, pc}
    d748:	e59f3018 	ldr	r3, [pc, #24]	; d768 <kmalloc+0x54>
    d74c:	e58d3000 	str	r3, [sp]
    d750:	e3a03062 	mov	r3, #98, 0	; 0x62
    d754:	e59f2010 	ldr	r2, [pc, #16]	; d76c <kmalloc+0x58>
    d758:	e59f1010 	ldr	r1, [pc, #16]	; d770 <kmalloc+0x5c>
    d75c:	e59f0010 	ldr	r0, [pc, #16]	; d774 <kmalloc+0x60>
    d760:	ebfffdec 	bl	cf18 <printk>
    d764:	ebfffef4 	bl	d33c <clean_reboot>
    d768:	0000e7e4 	.word	0x0000e7e4
    d76c:	0000f0c0 	.word	0x0000f0c0
    d770:	0000eec4 	.word	0x0000eec4
    d774:	0000dbd8 	.word	0x0000dbd8

0000d778 <kmalloc_aligned>:
    d778:	e52de004 	push	{lr}		; (str lr, [sp, #-4]!)
    d77c:	e24dd00c 	sub	sp, sp, #12, 0
    d780:	e3500000 	cmp	r0, #0, 0
    d784:	0a000014 	beq	d7dc <kmalloc_aligned+0x64>
    d788:	e2613000 	rsb	r3, r1, #0, 0
    d78c:	e1d13003 	bics	r3, r1, r3
    d790:	1a000019 	bne	d7fc <kmalloc_aligned+0x84>
    d794:	e3510008 	cmp	r1, #8, 0
    d798:	33a01008 	movcc	r1, #8, 0
    d79c:	e59f30b8 	ldr	r3, [pc, #184]	; d85c <kmalloc_aligned+0xe4>
    d7a0:	e5932008 	ldr	r2, [r3, #8]
    d7a4:	e2613000 	rsb	r3, r1, #0, 0
    d7a8:	e1d1c003 	bics	ip, r1, r3
    d7ac:	1a00001a 	bne	d81c <kmalloc_aligned+0xa4>
    d7b0:	e0822001 	add	r2, r2, r1
    d7b4:	e2422001 	sub	r2, r2, #1, 0
    d7b8:	e0033002 	and	r3, r3, r2
    d7bc:	e2411001 	sub	r1, r1, #1, 0
    d7c0:	e1110003 	tst	r1, r3
    d7c4:	1a00001c 	bne	d83c <kmalloc_aligned+0xc4>
    d7c8:	e59f208c 	ldr	r2, [pc, #140]	; d85c <kmalloc_aligned+0xe4>
    d7cc:	e5823008 	str	r3, [r2, #8]
    d7d0:	ebffffcf 	bl	d714 <kmalloc>
    d7d4:	e28dd00c 	add	sp, sp, #12, 0
    d7d8:	e49df004 	pop	{pc}		; (ldr pc, [sp], #4)
    d7dc:	e59f307c 	ldr	r3, [pc, #124]	; d860 <kmalloc_aligned+0xe8>
    d7e0:	e58d3000 	str	r3, [sp]
    d7e4:	e3a0306d 	mov	r3, #109, 0	; 0x6d
    d7e8:	e59f2074 	ldr	r2, [pc, #116]	; d864 <kmalloc_aligned+0xec>
    d7ec:	e59f1074 	ldr	r1, [pc, #116]	; d868 <kmalloc_aligned+0xf0>
    d7f0:	e59f0074 	ldr	r0, [pc, #116]	; d86c <kmalloc_aligned+0xf4>
    d7f4:	ebfffdc7 	bl	cf18 <printk>
    d7f8:	ebfffecf 	bl	d33c <clean_reboot>
    d7fc:	e59f306c 	ldr	r3, [pc, #108]	; d870 <kmalloc_aligned+0xf8>
    d800:	e58d3000 	str	r3, [sp]
    d804:	e3a0306e 	mov	r3, #110, 0	; 0x6e
    d808:	e59f2054 	ldr	r2, [pc, #84]	; d864 <kmalloc_aligned+0xec>
    d80c:	e59f1054 	ldr	r1, [pc, #84]	; d868 <kmalloc_aligned+0xf0>
    d810:	e59f005c 	ldr	r0, [pc, #92]	; d874 <kmalloc_aligned+0xfc>
    d814:	ebfffdbf 	bl	cf18 <printk>
    d818:	ebfffec7 	bl	d33c <clean_reboot>
    d81c:	e59f3054 	ldr	r3, [pc, #84]	; d878 <kmalloc_aligned+0x100>
    d820:	e58d3000 	str	r3, [sp]
    d824:	e3a03011 	mov	r3, #17, 0
    d828:	e59f204c 	ldr	r2, [pc, #76]	; d87c <kmalloc_aligned+0x104>
    d82c:	e59f1034 	ldr	r1, [pc, #52]	; d868 <kmalloc_aligned+0xf0>
    d830:	e59f0034 	ldr	r0, [pc, #52]	; d86c <kmalloc_aligned+0xf4>
    d834:	ebfffdb7 	bl	cf18 <printk>
    d838:	ebfffebf 	bl	d33c <clean_reboot>
    d83c:	e59f303c 	ldr	r3, [pc, #60]	; d880 <kmalloc_aligned+0x108>
    d840:	e58d3000 	str	r3, [sp]
    d844:	e3a03076 	mov	r3, #118, 0	; 0x76
    d848:	e59f2014 	ldr	r2, [pc, #20]	; d864 <kmalloc_aligned+0xec>
    d84c:	e59f1014 	ldr	r1, [pc, #20]	; d868 <kmalloc_aligned+0xf0>
    d850:	e59f002c 	ldr	r0, [pc, #44]	; d884 <kmalloc_aligned+0x10c>
    d854:	ebfffdaf 	bl	cf18 <printk>
    d858:	ebfffeb7 	bl	d33c <clean_reboot>
    d85c:	0000f0f0 	.word	0x0000f0f0
    d860:	0000e7e4 	.word	0x0000e7e4
    d864:	0000f0c8 	.word	0x0000f0c8
    d868:	0000eec4 	.word	0x0000eec4
    d86c:	0000dbd8 	.word	0x0000dbd8
    d870:	0000eff4 	.word	0x0000eff4
    d874:	0000efb4 	.word	0x0000efb4
    d878:	0000f008 	.word	0x0000f008
    d87c:	0000f0d8 	.word	0x0000f0d8
    d880:	0000f04c 	.word	0x0000f04c
    d884:	0000f014 	.word	0x0000f014

0000d888 <kfree_all>:
    d888:	e59f3008 	ldr	r3, [pc, #8]	; d898 <kfree_all+0x10>
    d88c:	e5932004 	ldr	r2, [r3, #4]
    d890:	e5832008 	str	r2, [r3, #8]
    d894:	e12fff1e 	bx	lr
    d898:	0000f0f0 	.word	0x0000f0f0

0000d89c <kfree_pop>:
    d89c:	e59f3048 	ldr	r3, [pc, #72]	; d8ec <kfree_pop+0x50>
    d8a0:	e5933004 	ldr	r3, [r3, #4]
    d8a4:	e1530000 	cmp	r3, r0
    d8a8:	8a000006 	bhi	d8c8 <kfree_pop+0x2c>
    d8ac:	e59f3038 	ldr	r3, [pc, #56]	; d8ec <kfree_pop+0x50>
    d8b0:	e5933000 	ldr	r3, [r3]
    d8b4:	e1530000 	cmp	r3, r0
    d8b8:	3a000002 	bcc	d8c8 <kfree_pop+0x2c>
    d8bc:	e59f3028 	ldr	r3, [pc, #40]	; d8ec <kfree_pop+0x50>
    d8c0:	e5830008 	str	r0, [r3, #8]
    d8c4:	e12fff1e 	bx	lr
    d8c8:	e52de004 	push	{lr}		; (str lr, [sp, #-4]!)
    d8cc:	e24dd00c 	sub	sp, sp, #12, 0
    d8d0:	e58d0000 	str	r0, [sp]
    d8d4:	e3a03085 	mov	r3, #133, 0	; 0x85
    d8d8:	e59f2010 	ldr	r2, [pc, #16]	; d8f0 <kfree_pop+0x54>
    d8dc:	e59f1010 	ldr	r1, [pc, #16]	; d8f4 <kfree_pop+0x58>
    d8e0:	e59f0010 	ldr	r0, [pc, #16]	; d8f8 <kfree_pop+0x5c>
    d8e4:	ebfffd8b 	bl	cf18 <printk>
    d8e8:	ebfffe93 	bl	d33c <clean_reboot>
    d8ec:	0000f0f0 	.word	0x0000f0f0
    d8f0:	0000f0e0 	.word	0x0000f0e0
    d8f4:	0000eec4 	.word	0x0000eec4
    d8f8:	0000f068 	.word	0x0000f068

0000d8fc <uart_init>:
    d8fc:	e92d4070 	push	{r4, r5, r6, lr}
    d900:	ebfffec7 	bl	d424 <dev_barrier>
    d904:	e3a01002 	mov	r1, #2, 0
    d908:	e3a0000f 	mov	r0, #15, 0
    d90c:	ebfffcc6 	bl	cc2c <gpio_set_function>
    d910:	e3a01002 	mov	r1, #2, 0
    d914:	e3a0000e 	mov	r0, #14, 0
    d918:	ebfffcc3 	bl	cc2c <gpio_set_function>
    d91c:	ebfffec0 	bl	d424 <dev_barrier>
    d920:	e59f4090 	ldr	r4, [pc, #144]	; d9b8 <uart_init+0xbc>
    d924:	e1a00004 	mov	r0, r4
    d928:	ebffe9bf 	bl	802c <GET32>
    d92c:	e3801001 	orr	r1, r0, #1, 0
    d930:	e1a00004 	mov	r0, r4
    d934:	ebffe9ba 	bl	8024 <PUT32>
    d938:	ebfffeb9 	bl	d424 <dev_barrier>
    d93c:	e284405c 	add	r4, r4, #92, 0	; 0x5c
    d940:	e1a00004 	mov	r0, r4
    d944:	ebffe9b8 	bl	802c <GET32>
    d948:	e3c01003 	bic	r1, r0, #3, 0
    d94c:	e1a00004 	mov	r0, r4
    d950:	ebffe9b3 	bl	8024 <PUT32>
    d954:	e3a01006 	mov	r1, #6, 0
    d958:	e59f005c 	ldr	r0, [pc, #92]	; d9bc <uart_init+0xc0>
    d95c:	ebffe9b0 	bl	8024 <PUT32>
    d960:	e59f5058 	ldr	r5, [pc, #88]	; d9c0 <uart_init+0xc4>
    d964:	e1a00005 	mov	r0, r5
    d968:	ebffe9af 	bl	802c <GET32>
    d96c:	e3c01003 	bic	r1, r0, #3, 0
    d970:	e1a00005 	mov	r0, r5
    d974:	ebffe9aa 	bl	8024 <PUT32>
    d978:	e59f1044 	ldr	r1, [pc, #68]	; d9c4 <uart_init+0xc8>
    d97c:	e59f0044 	ldr	r0, [pc, #68]	; d9c8 <uart_init+0xcc>
    d980:	ebffe9a7 	bl	8024 <PUT32>
    d984:	e2855008 	add	r5, r5, #8, 0
    d988:	e1a00005 	mov	r0, r5
    d98c:	ebffe9a6 	bl	802c <GET32>
    d990:	e3801003 	orr	r1, r0, #3, 0
    d994:	e1a00005 	mov	r0, r5
    d998:	ebffe9a1 	bl	8024 <PUT32>
    d99c:	e1a00004 	mov	r0, r4
    d9a0:	ebffe9a1 	bl	802c <GET32>
    d9a4:	e3801003 	orr	r1, r0, #3, 0
    d9a8:	e1a00004 	mov	r0, r4
    d9ac:	ebffe99c 	bl	8024 <PUT32>
    d9b0:	ebfffe9b 	bl	d424 <dev_barrier>
    d9b4:	e8bd8070 	pop	{r4, r5, r6, pc}
    d9b8:	20215004 	.word	0x20215004
    d9bc:	20215048 	.word	0x20215048
    d9c0:	20215044 	.word	0x20215044
    d9c4:	0000010f 	.word	0x0000010f
    d9c8:	20215068 	.word	0x20215068

0000d9cc <uart_can_put8>:
    d9cc:	e92d4010 	push	{r4, lr}
    d9d0:	e59f0010 	ldr	r0, [pc, #16]	; d9e8 <uart_can_put8+0x1c>
    d9d4:	ebffe994 	bl	802c <GET32>
    d9d8:	e3100020 	tst	r0, #32, 0
    d9dc:	13a00001 	movne	r0, #1, 0
    d9e0:	03a00000 	moveq	r0, #0, 0
    d9e4:	e8bd8010 	pop	{r4, pc}
    d9e8:	20215054 	.word	0x20215054

0000d9ec <uart_put8>:
    d9ec:	e92d4010 	push	{r4, lr}
    d9f0:	e1a04000 	mov	r4, r0
    d9f4:	ebfffff4 	bl	d9cc <uart_can_put8>
    d9f8:	e3500000 	cmp	r0, #0, 0
    d9fc:	0afffffc 	beq	d9f4 <uart_put8+0x8>
    da00:	e1a01004 	mov	r1, r4
    da04:	e59f0008 	ldr	r0, [pc, #8]	; da14 <uart_put8+0x28>
    da08:	ebffe985 	bl	8024 <PUT32>
    da0c:	e3a00000 	mov	r0, #0, 0
    da10:	e8bd8010 	pop	{r4, pc}
    da14:	20215040 	.word	0x20215040

0000da18 <uart_has_data>:
    da18:	e92d4010 	push	{r4, lr}
    da1c:	e59f0008 	ldr	r0, [pc, #8]	; da2c <uart_has_data+0x14>
    da20:	ebffe981 	bl	802c <GET32>
    da24:	e2000001 	and	r0, r0, #1, 0
    da28:	e8bd8010 	pop	{r4, pc}
    da2c:	20215054 	.word	0x20215054

0000da30 <uart_get8>:
    da30:	e92d4010 	push	{r4, lr}
    da34:	ebfffff7 	bl	da18 <uart_has_data>
    da38:	e3500000 	cmp	r0, #0, 0
    da3c:	0afffffc 	beq	da34 <uart_get8+0x4>
    da40:	e59f0008 	ldr	r0, [pc, #8]	; da50 <uart_get8+0x20>
    da44:	ebffe978 	bl	802c <GET32>
    da48:	e6ef0070 	uxtb	r0, r0
    da4c:	e8bd8010 	pop	{r4, pc}
    da50:	20215040 	.word	0x20215040

0000da54 <uart_get8_async>:
    da54:	e92d4010 	push	{r4, lr}
    da58:	ebffffee 	bl	da18 <uart_has_data>
    da5c:	e3500000 	cmp	r0, #0, 0
    da60:	0a000001 	beq	da6c <uart_get8_async+0x18>
    da64:	ebfffff1 	bl	da30 <uart_get8>
    da68:	e8bd8010 	pop	{r4, pc}
    da6c:	e3e00000 	mvn	r0, #0, 0
    da70:	e8bd8010 	pop	{r4, pc}

0000da74 <uart_tx_is_empty>:
    da74:	e92d4010 	push	{r4, lr}
    da78:	e59f0010 	ldr	r0, [pc, #16]	; da90 <uart_tx_is_empty+0x1c>
    da7c:	ebffe96a 	bl	802c <GET32>
    da80:	e3100040 	tst	r0, #64, 0	; 0x40
    da84:	13a00001 	movne	r0, #1, 0
    da88:	03a00000 	moveq	r0, #0, 0
    da8c:	e8bd8010 	pop	{r4, pc}
    da90:	20215054 	.word	0x20215054

0000da94 <uart_flush_tx>:
    da94:	e92d4010 	push	{r4, lr}
    da98:	ebfffff5 	bl	da74 <uart_tx_is_empty>
    da9c:	e3500000 	cmp	r0, #0, 0
    daa0:	0afffffc 	beq	da98 <uart_flush_tx+0x4>
    daa4:	e8bd8010 	pop	{r4, pc}

0000daa8 <uart_disable>:
    daa8:	e92d4010 	push	{r4, lr}
    daac:	ebfffff8 	bl	da94 <uart_flush_tx>
    dab0:	ebfffe5b 	bl	d424 <dev_barrier>
    dab4:	e59f4018 	ldr	r4, [pc, #24]	; dad4 <uart_disable+0x2c>
    dab8:	e1a00004 	mov	r0, r4
    dabc:	ebffe95a 	bl	802c <GET32>
    dac0:	e3c01001 	bic	r1, r0, #1, 0
    dac4:	e1a00004 	mov	r0, r4
    dac8:	ebffe955 	bl	8024 <PUT32>
    dacc:	ebfffe54 	bl	d424 <dev_barrier>
    dad0:	e8bd8010 	pop	{r4, pc}
    dad4:	20215004 	.word	0x20215004

0000dad8 <putk>:
    dad8:	e92d4010 	push	{r4, lr}
    dadc:	e1a04000 	mov	r4, r0
    dae0:	e5d40000 	ldrb	r0, [r4]
    dae4:	e3500000 	cmp	r0, #0, 0
    dae8:	0a000004 	beq	db00 <putk+0x28>
    daec:	e59f3014 	ldr	r3, [pc, #20]	; db08 <putk+0x30>
    daf0:	e5933000 	ldr	r3, [r3]
    daf4:	e12fff33 	blx	r3
    daf8:	e2844001 	add	r4, r4, #1, 0
    dafc:	eafffff7 	b	dae0 <putk+0x8>
    db00:	e3a00001 	mov	r0, #1, 0
    db04:	e8bd8010 	pop	{r4, pc}
    db08:	0000f0ec 	.word	0x0000f0ec

0000db0c <reboot_callout>:
    db0c:	e12fff1e 	bx	lr
